

Microchip Technology PIC18 LITE Macro Assembler V1.34 build -361300703 
                                                                                               Thu Mar 17 17:37:20 2022

Microchip Technology Omniscient Code Generator (Lite mode) build 201502162209
     1                           	processor	18F4620
     2                           	fnconf	rparam,??,?,0
     3                           	opt	pw 120
     4                           	opt	lm
     5                           	psect	idataCOMRAM,global,class=CODE,delta=1
     6                           	psect	cinit,global,reloc=2,class=CODE,delta=1
     7                           	psect	dataCOMRAM,global,class=COMRAM,space=1,delta=1
     8                           	psect	cstackCOMRAM,global,class=COMRAM,space=1,delta=1
     9                           	psect	text0,global,reloc=2,class=CODE,delta=1
    10                           	psect	text1,global,reloc=2,class=CODE,delta=1
    11                           	psect	text2,global,reloc=2,class=CODE,delta=1
    12                           	psect	text3,global,reloc=2,class=CODE,delta=1
    13                           	psect	text4,global,reloc=2,class=CODE,delta=1
    14                           	psect	text5,global,reloc=2,class=CODE,delta=1
    15                           	psect	text6,global,reloc=2,class=CODE,delta=1
    16                           	psect	text7,global,reloc=2,class=CODE,delta=1
    17                           	psect	text8,global,reloc=2,class=CODE,delta=1
    18                           	psect	text9,global,reloc=2,class=CODE,delta=1
    19                           	psect	text10,global,reloc=2,class=CODE,delta=1
    20                           	psect	text11,global,reloc=2,class=CODE,delta=1
    21                           	psect	text12,global,reloc=2,class=CODE,delta=1
    22                           	psect	text13,global,reloc=2,class=CODE,delta=1
    23                           	psect	text14,global,reloc=2,class=CODE,delta=1
    24                           	psect	text15,global,reloc=2,class=CODE,delta=1
    25                           	psect	text16,global,reloc=2,class=CODE,delta=1
    26                           	psect	text17,global,reloc=2,class=CODE,delta=1
    27                           	psect	text18,global,reloc=2,class=CODE,delta=1
    28                           	psect	text19,global,reloc=2,class=CODE,delta=1
    29                           	psect	text20,global,reloc=2,class=CODE,delta=1
    30                           	psect	text21,global,reloc=2,class=CODE,delta=1
    31                           	psect	text22,global,reloc=2,class=CODE,delta=1
    32                           	psect	text23,global,reloc=2,class=CODE,delta=1
    33                           	psect	text24,global,reloc=2,class=CODE,delta=1
    34                           	psect	text25,global,reloc=2,class=CODE,delta=1
    35                           	psect	intsave_regs,global,class=BIGRAM,space=1,delta=1
    36                           	psect	rparam,global,class=COMRAM,space=1,delta=1
    37  0000                     
    38                           	psect	idataCOMRAM
    39  00F838                     __pidataCOMRAM:
    40                           	opt stack 0
    41                           
    42                           ;initializer for _array
    43  00F838  FF                 	db	255
    44  00F839  79                 	db	121
    45  00F83A  24                 	db	36
    46  00F83B  30                 	db	48
    47  00F83C  19                 	db	25
    48  00F83D  12                 	db	18
    49  00F83E  02                 	db	2
    50  00F83F  78                 	db	120
    51  00F840  00                 	db	0
    52  00F841  10                 	db	16
    53  0000                     _ADCON0	set	4034
    54  0000                     _ADCON0bits	set	4034
    55  0000                     _ADCON1	set	4033
    56  0000                     _ADCON2	set	4032
    57  0000                     _ADRESH	set	4036
    58  0000                     _ADRESL	set	4035
    59  0000                     _CCP2CON	set	4026
    60  0000                     _CCPR2L	set	4027
    61  0000                     _INTCONbits	set	4082
    62  0000                     _OSCCON	set	4051
    63  0000                     _PIE1bits	set	3997
    64  0000                     _PIR1bits	set	3998
    65  0000                     _PORTAbits	set	3968
    66  0000                     _PORTBbits	set	3969
    67  0000                     _PORTC	set	3970
    68  0000                     _PORTD	set	3971
    69  0000                     _PORTDbits	set	3971
    70  0000                     _PORTEbits	set	3972
    71  0000                     _PR2	set	4043
    72  0000                     _RCSTA	set	4011
    73  0000                     _RCSTAbits	set	4011
    74  0000                     _SPBRG	set	4015
    75  0000                     _SPBRGH	set	4016
    76  0000                     _T0CON	set	4053
    77  0000                     _T0CONbits	set	4053
    78  0000                     _T2CON	set	4042
    79  0000                     _TMR0H	set	4055
    80  0000                     _TMR0L	set	4054
    81  0000                     _TRISA	set	3986
    82  0000                     _TRISB	set	3987
    83  0000                     _TRISC	set	3988
    84  0000                     _TRISCbits	set	3988
    85  0000                     _TRISD	set	3989
    86  0000                     _TRISE	set	3990
    87  0000                     _TXSTA	set	4012
    88  0000                     _TXSTAbits	set	4012
    89                           
    90                           ; #config settings
    91  0000                     
    92                           	psect	cinit
    93  00F928                     __pcinit:
    94                           	opt stack 0
    95  00F928                     start_initialization:
    96                           	opt stack 0
    97  00F928                     __initialization:
    98                           	opt stack 0
    99                           
   100                           ; Initialize objects allocated to COMRAM (10 bytes)
   101                           ; load TBLPTR registers with __pidataCOMRAM
   102  00F928  0E38               	movlw	low __pidataCOMRAM
   103  00F92A  6EF6               	movwf	tblptrl,c
   104  00F92C  0EF8               	movlw	high __pidataCOMRAM
   105  00F92E  6EF7               	movwf	tblptrh,c
   106  00F930  0E00               	movlw	low (__pidataCOMRAM shr (0+16))
   107  00F932  6EF8               	movwf	tblptru,c
   108  00F934  EE00  F026         	lfsr	0,__pdataCOMRAM
   109  00F938  EE10 F00A          	lfsr	1,10
   110  00F93C                     copy_data0:
   111  00F93C  0009               	tblrd		*+
   112  00F93E  CFF5 FFEE          	movff	tablat,postinc0
   113  00F942  50E5               	movf	postdec1,w,c
   114  00F944  50E1               	movf	fsr1l,w,c
   115  00F946  E1FA               	bnz	copy_data0
   116  00F948                     end_of_initialization:
   117                           	opt stack 0
   118  00F948                     __end_of__initialization:
   119                           	opt stack 0
   120  00F948  0E00               	movlw	low (__Lmediumconst shr (0+16))
   121  00F94A  6EF8               	movwf	tblptru,c
   122  00F94C  0100               	movlb	0
   123  00F94E  EFB2  F07D         	goto	_main	;jump to C main() function
   124                           tblptru	equ	0xFF8
   125                           tblptrh	equ	0xFF7
   126                           tblptrl	equ	0xFF6
   127                           tablat	equ	0xFF5
   128                           postinc0	equ	0xFEE
   129                           postdec1	equ	0xFE5
   130                           fsr1l	equ	0xFE1
   131                           
   132                           	psect	dataCOMRAM
   133  000026                     __pdataCOMRAM:
   134                           	opt stack 0
   135  000026                     _array:
   136                           	opt stack 0
   137  000026                     	ds	10
   138                           tblptru	equ	0xFF8
   139                           tblptrh	equ	0xFF7
   140                           tblptrl	equ	0xFF6
   141                           tablat	equ	0xFF5
   142                           postinc0	equ	0xFEE
   143                           postdec1	equ	0xFE5
   144                           fsr1l	equ	0xFE1
   145                           
   146                           	psect	cstackCOMRAM
   147  000001                     __pcstackCOMRAM:
   148                           	opt stack 0
   149  000001                     ??_Display_Lower_Digit:
   150  000001                     ?_get_full_ADC:
   151                           	opt stack 0
   152  000001                     ?___ftpack:
   153                           	opt stack 0
   154  000001                     ?___fttol:
   155                           	opt stack 0
   156  000001                     Select_ADC_Channel@channel:
   157                           	opt stack 0
   158  000001                     Display_Upper_Digit@digit:
   159                           	opt stack 0
   160  000001                     Wait_N_Seconds@seconds:
   161                           	opt stack 0
   162  000001                     Set_NS@color:
   163                           	opt stack 0
   164  000001                     Set_NSLT@color:
   165                           	opt stack 0
   166  000001                     Set_EW@color:
   167                           	opt stack 0
   168  000001                     Set_EWLT@color:
   169                           	opt stack 0
   170  000001                     OpenUSART@spbrg:
   171                           	opt stack 0
   172  000001                     ___ftpack@arg:
   173                           	opt stack 0
   174  000001                     ___fttol@f1:
   175                           	opt stack 0
   176                           
   177                           ; 3 bytes @ 0x0
   178  000001                     	ds	1
   179  000002                     Display_Lower_Digit@digit:
   180                           	opt stack 0
   181  000002                     Wait_N_Seconds@I:
   182                           	opt stack 0
   183                           
   184                           ; 1 bytes @ 0x1
   185  000002                     	ds	1
   186  000003                     ??_get_full_ADC:
   187  000003                     PED_Control@Num_Sec:
   188                           	opt stack 0
   189  000003                     OpenUSART@config:
   190                           	opt stack 0
   191                           
   192                           ; 1 bytes @ 0x2
   193  000003                     	ds	1
   194  000004                     PED_Control@Direction:
   195                           	opt stack 0
   196  000004                     ___ftpack@exp:
   197                           	opt stack 0
   198                           
   199                           ; 1 bytes @ 0x3
   200  000004                     	ds	1
   201  000005                     ??___fttol:
   202  000005                     PED_Control@i:
   203                           	opt stack 0
   204  000005                     ___ftpack@sign:
   205                           	opt stack 0
   206  000005                     get_full_ADC@result:
   207                           	opt stack 0
   208                           
   209                           ; 2 bytes @ 0x4
   210  000005                     	ds	1
   211  000006                     ??___ftpack:
   212                           
   213                           ; 0 bytes @ 0x5
   214  000006                     	ds	3
   215  000009                     ?___awtoft:
   216                           	opt stack 0
   217  000009                     ___awtoft@c:
   218                           	opt stack 0
   219                           
   220                           ; 2 bytes @ 0x8
   221  000009                     	ds	1
   222  00000A                     ___fttol@sign1:
   223                           	opt stack 0
   224                           
   225                           ; 1 bytes @ 0x9
   226  00000A                     	ds	1
   227  00000B                     ___fttol@lval:
   228                           	opt stack 0
   229                           
   230                           ; 4 bytes @ 0xA
   231  00000B                     	ds	1
   232  00000C                     ___awtoft@sign:
   233                           	opt stack 0
   234                           
   235                           ; 1 bytes @ 0xB
   236  00000C                     	ds	1
   237  00000D                     ?___ftmul:
   238                           	opt stack 0
   239  00000D                     ___ftmul@f1:
   240                           	opt stack 0
   241                           
   242                           ; 3 bytes @ 0xC
   243  00000D                     	ds	2
   244  00000F                     ___fttol@exp1:
   245                           	opt stack 0
   246                           
   247                           ; 1 bytes @ 0xE
   248  00000F                     	ds	1
   249  000010                     ___ftmul@f2:
   250                           	opt stack 0
   251                           
   252                           ; 3 bytes @ 0xF
   253  000010                     	ds	3
   254  000013                     ??___ftmul:
   255                           
   256                           ; 0 bytes @ 0x12
   257  000013                     	ds	3
   258  000016                     ___ftmul@exp:
   259                           	opt stack 0
   260                           
   261                           ; 1 bytes @ 0x15
   262  000016                     	ds	1
   263  000017                     ___ftmul@f3_as_product:
   264                           	opt stack 0
   265                           
   266                           ; 3 bytes @ 0x16
   267  000017                     	ds	3
   268  00001A                     ___ftmul@cntr:
   269                           	opt stack 0
   270                           
   271                           ; 1 bytes @ 0x19
   272  00001A                     	ds	1
   273  00001B                     ___ftmul@sign:
   274                           	opt stack 0
   275                           
   276                           ; 1 bytes @ 0x1A
   277  00001B                     	ds	1
   278  00001C                     main@pvoltage_mv:
   279                           	opt stack 0
   280                           
   281                           ; 3 bytes @ 0x1B
   282  00001C                     	ds	3
   283  00001F                     main@Pvoltage:
   284                           	opt stack 0
   285                           
   286                           ; 3 bytes @ 0x1E
   287  00001F                     	ds	3
   288  000022                     main@num_step:
   289                           	opt stack 0
   290                           
   291                           ; 2 bytes @ 0x21
   292  000022                     	ds	2
   293  000024                     main@finalVoltage:
   294                           	opt stack 0
   295                           
   296                           ; 2 bytes @ 0x23
   297  000024                     	ds	2
   298                           tblptru	equ	0xFF8
   299                           tblptrh	equ	0xFF7
   300                           tblptrl	equ	0xFF6
   301                           tablat	equ	0xFF5
   302                           postinc0	equ	0xFEE
   303                           postdec1	equ	0xFE5
   304                           fsr1l	equ	0xFE1
   305                           
   306 ;;
   307 ;;Main: autosize = 0, tempsize = 0, incstack = 0, save=0
   308 ;;
   309 ;; *************** function _main *****************
   310 ;; Defined at:
   311 ;;		line 64 in file "Lab6.c"
   312 ;; Parameters:    Size  Location     Type
   313 ;;		None
   314 ;; Auto vars:     Size  Location     Type
   315 ;;  Pvoltage        3   30[COMRAM] float 
   316 ;;  pvoltage_mv     3   27[COMRAM] float 
   317 ;;  finalVoltage    2   35[COMRAM] int 
   318 ;;  num_step        2   33[COMRAM] int 
   319 ;; Return value:  Size  Location     Type
   320 ;;		None               void
   321 ;; Registers used:
   322 ;;		wreg, fsr2l, fsr2h, status,2, status,0, prodl, prodh, cstack
   323 ;; Tracked objects:
   324 ;;		On entry : 0/0
   325 ;;		On exit  : 0/0
   326 ;;		Unchanged: 0/0
   327 ;; Data sizes:     COMRAM   BANK0   BANK1   BANK2   BANK3   BANK4   BANK5   BANK6   BANK7   BANK8   BANK9  BANK10  BANK1
      +1  BANK12  BANK13  BANK14  BANK15
   328 ;;      Params:         0       0       0       0       0       0       0       0       0       0       0       0       
      +0       0       0       0       0
   329 ;;      Locals:        10       0       0       0       0       0       0       0       0       0       0       0       
      +0       0       0       0       0
   330 ;;      Temps:          0       0       0       0       0       0       0       0       0       0       0       0       
      +0       0       0       0       0
   331 ;;      Totals:        10       0       0       0       0       0       0       0       0       0       0       0       
      +0       0       0       0       0
   332 ;;Total ram usage:       10 bytes
   333 ;; Hardware stack levels required when called:    4
   334 ;; This function calls:
   335 ;;		_Day_Mode
   336 ;;		_Init_ADC
   337 ;;		_Init_Tris
   338 ;;		_Night_Mode
   339 ;;		_Select_ADC_Channel
   340 ;;		___awtoft
   341 ;;		___ftmul
   342 ;;		___fttol
   343 ;;		_get_full_ADC
   344 ;;		_init_UART
   345 ;; This function is called by:
   346 ;;		Startup code after reset
   347 ;; This function uses a non-reentrant model
   348 ;;
   349                           
   350                           	psect	text0
   351  00FB64                     __ptext0:
   352                           	opt stack 0
   353  00FB64                     _main:
   354                           	opt stack 27
   355                           
   356                           ;Lab6.c: 65: Init_ADC();
   357                           
   358                           ;incstack = 0
   359  00FB64  EC17  F07C         	call	_Init_ADC	;wreg free
   360                           
   361                           ;Lab6.c: 66: init_UART();
   362  00FB68  EC37  F07C         	call	_init_UART	;wreg free
   363                           
   364                           ;Lab6.c: 67: Init_Tris();
   365  00FB6C  EC4C  F07C         	call	_Init_Tris	;wreg free
   366  00FB70  D000               	goto	l1442
   367  00FB72                     l1442:
   368                           
   369                           ;Lab6.c: 71: Select_ADC_Channel(0);
   370  00FB72  0E00               	movlw	0
   371  00FB74  EC21  F07C         	call	_Select_ADC_Channel
   372                           
   373                           ;Lab6.c: 72: int num_step = get_full_ADC();
   374  00FB78  EC81  F07C         	call	_get_full_ADC	;wreg free
   375  00FB7C  C001  F022         	movff	?_get_full_ADC,main@num_step
   376  00FB80  C002  F023         	movff	?_get_full_ADC+1,main@num_step+1
   377                           
   378                           ;Lab6.c: 73: float pvoltage_mv = num_step*4.0;
   379  00FB84  C022  F009         	movff	main@num_step,___awtoft@c
   380  00FB88  C023  F00A         	movff	main@num_step+1,___awtoft@c+1
   381  00FB8C  EC30  F07D         	call	___awtoft	;wreg free
   382  00FB90  C009  F00D         	movff	?___awtoft,___ftmul@f1
   383  00FB94  C00A  F00E         	movff	?___awtoft+1,___ftmul@f1+1
   384  00FB98  C00B  F00F         	movff	?___awtoft+2,___ftmul@f1+2
   385  00FB9C  0E00               	movlw	0
   386  00FB9E  6E10               	movwf	___ftmul@f2,c
   387  00FBA0  0E80               	movlw	128
   388  00FBA2  6E11               	movwf	___ftmul@f2+1,c
   389  00FBA4  0E40               	movlw	64
   390  00FBA6  6E12               	movwf	___ftmul@f2+2,c
   391  00FBA8  EC84  F07F         	call	___ftmul	;wreg free
   392  00FBAC  C00D  F01C         	movff	?___ftmul,main@pvoltage_mv
   393  00FBB0  C00E  F01D         	movff	?___ftmul+1,main@pvoltage_mv+1
   394  00FBB4  C00F  F01E         	movff	?___ftmul+2,main@pvoltage_mv+2
   395                           
   396                           ;Lab6.c: 74: float Pvoltage = pvoltage_mv;
   397  00FBB8  C01C  F01F         	movff	main@pvoltage_mv,main@Pvoltage
   398  00FBBC  C01D  F020         	movff	main@pvoltage_mv+1,main@Pvoltage+1
   399  00FBC0  C01E  F021         	movff	main@pvoltage_mv+2,main@Pvoltage+2
   400                           
   401                           ;Lab6.c: 75: int finalVoltage = (int)Pvoltage;
   402  00FBC4  C01F  F001         	movff	main@Pvoltage,___fttol@f1
   403  00FBC8  C020  F002         	movff	main@Pvoltage+1,___fttol@f1+1
   404  00FBCC  C021  F003         	movff	main@Pvoltage+2,___fttol@f1+2
   405  00FBD0  EC11  F07F         	call	___fttol	;wreg free
   406  00FBD4  C001  F024         	movff	?___fttol,main@finalVoltage
   407  00FBD8  C002  F025         	movff	?___fttol+1,main@finalVoltage+1
   408                           
   409                           ;Lab6.c: 77: if(finalVoltage < 3000){
   410  00FBDC  BE25               	btfsc	main@finalVoltage+1,7,c
   411  00FBDE  D006               	goto	l1454
   412  00FBE0  0EB8               	movlw	184
   413  00FBE2  5C24               	subwf	main@finalVoltage,w,c
   414  00FBE4  0E0B               	movlw	11
   415  00FBE6  5825               	subwfb	main@finalVoltage+1,w,c
   416  00FBE8  B0D8               	btfsc	status,0,c
   417  00FBEA  D004               	goto	l78
   418  00FBEC                     l1454:
   419                           
   420                           ;Lab6.c: 78: PORTBbits.RB7 = 1;
   421  00FBEC  8E81               	bsf	3969,7,c	;volatile
   422                           
   423                           ;Lab6.c: 79: Day_Mode();
   424  00FBEE  EC51  F07E         	call	_Day_Mode	;wreg free
   425                           
   426                           ;Lab6.c: 80: }else{
   427  00FBF2  D7BF               	goto	l1442
   428  00FBF4                     l78:
   429                           
   430                           ;Lab6.c: 81: PORTBbits.RB7 = 0;
   431  00FBF4  9E81               	bcf	3969,7,c	;volatile
   432                           
   433                           ;Lab6.c: 82: Night_Mode();
   434  00FBF6  EC00  F07E         	call	_Night_Mode	;wreg free
   435  00FBFA  D7BB               	goto	l1442
   436  00FBFC  EF00  F000         	goto	start
   437  00FC00                     __end_of_main:
   438                           	opt stack 0
   439                           tblptru	equ	0xFF8
   440                           tblptrh	equ	0xFF7
   441                           tblptrl	equ	0xFF6
   442                           tablat	equ	0xFF5
   443                           postinc0	equ	0xFEE
   444                           postdec1	equ	0xFE5
   445                           fsr1l	equ	0xFE1
   446                           status	equ	0xFD8
   447                           
   448 ;; *************** function _init_UART *****************
   449 ;; Defined at:
   450 ;;		line 112 in file "Lab6.c"
   451 ;; Parameters:    Size  Location     Type
   452 ;;		None
   453 ;; Auto vars:     Size  Location     Type
   454 ;;		None
   455 ;; Return value:  Size  Location     Type
   456 ;;		None               void
   457 ;; Registers used:
   458 ;;		wreg, status,2, cstack
   459 ;; Tracked objects:
   460 ;;		On entry : 0/0
   461 ;;		On exit  : 0/0
   462 ;;		Unchanged: 0/0
   463 ;; Data sizes:     COMRAM   BANK0   BANK1   BANK2   BANK3   BANK4   BANK5   BANK6   BANK7   BANK8   BANK9  BANK10  BANK1
      +1  BANK12  BANK13  BANK14  BANK15
   464 ;;      Params:         0       0       0       0       0       0       0       0       0       0       0       0       
      +0       0       0       0       0
   465 ;;      Locals:         0       0       0       0       0       0       0       0       0       0       0       0       
      +0       0       0       0       0
   466 ;;      Temps:          0       0       0       0       0       0       0       0       0       0       0       0       
      +0       0       0       0       0
   467 ;;      Totals:         0       0       0       0       0       0       0       0       0       0       0       0       
      +0       0       0       0       0
   468 ;;Total ram usage:        0 bytes
   469 ;; Hardware stack levels used:    1
   470 ;; Hardware stack levels required when called:    1
   471 ;; This function calls:
   472 ;;		_OpenUSART
   473 ;; This function is called by:
   474 ;;		_main
   475 ;; This function uses a non-reentrant model
   476 ;;
   477                           
   478                           	psect	text1
   479  00F86E                     __ptext1:
   480                           	opt stack 0
   481  00F86E                     _init_UART:
   482                           	opt stack 29
   483                           
   484                           ;Lab6.c: 113: OpenUSART(0b01111111 & 0b10111111 & 0b11111110 & 0b11111101
   485                           ;Lab6.c: 114: & 0b11111111 & 0b11111111, 25);
   486                           
   487                           ;incstack = 0
   488  00F86E  0E00               	movlw	0
   489  00F870  6E02               	movwf	OpenUSART@spbrg+1,c
   490  00F872  0E19               	movlw	25
   491  00F874  6E01               	movwf	OpenUSART@spbrg,c
   492  00F876  0E3C               	movlw	60
   493  00F878  EC7A  F07D         	call	_OpenUSART
   494                           
   495                           ;Lab6.c: 115: OSCCON = 0x60;
   496  00F87C  0E60               	movlw	96
   497  00F87E  6ED3               	movwf	4051,c	;volatile
   498  00F880  0012               	return		;funcret
   499  00F882                     __end_of_init_UART:
   500                           	opt stack 0
   501                           tblptru	equ	0xFF8
   502                           tblptrh	equ	0xFF7
   503                           tblptrl	equ	0xFF6
   504                           tablat	equ	0xFF5
   505                           postinc0	equ	0xFEE
   506                           postdec1	equ	0xFE5
   507                           fsr1l	equ	0xFE1
   508                           status	equ	0xFD8
   509                           
   510 ;; *************** function _OpenUSART *****************
   511 ;; Defined at:
   512 ;;		line 73 in file "C:\Program Files (x86)\Microchip\xc8\v1.34\sources\pic18\plib\USART\uopen.c"
   513 ;; Parameters:    Size  Location     Type
   514 ;;  config          1    wreg     unsigned char 
   515 ;;  spbrg           2    0[COMRAM] unsigned int 
   516 ;; Auto vars:     Size  Location     Type
   517 ;;  config          1    2[COMRAM] unsigned char 
   518 ;; Return value:  Size  Location     Type
   519 ;;		None               void
   520 ;; Registers used:
   521 ;;		wreg, status,2
   522 ;; Tracked objects:
   523 ;;		On entry : 0/0
   524 ;;		On exit  : 0/0
   525 ;;		Unchanged: 0/0
   526 ;; Data sizes:     COMRAM   BANK0   BANK1   BANK2   BANK3   BANK4   BANK5   BANK6   BANK7   BANK8   BANK9  BANK10  BANK1
      +1  BANK12  BANK13  BANK14  BANK15
   527 ;;      Params:         2       0       0       0       0       0       0       0       0       0       0       0       
      +0       0       0       0       0
   528 ;;      Locals:         1       0       0       0       0       0       0       0       0       0       0       0       
      +0       0       0       0       0
   529 ;;      Temps:          0       0       0       0       0       0       0       0       0       0       0       0       
      +0       0       0       0       0
   530 ;;      Totals:         3       0       0       0       0       0       0       0       0       0       0       0       
      +0       0       0       0       0
   531 ;;Total ram usage:        3 bytes
   532 ;; Hardware stack levels used:    1
   533 ;; This function calls:
   534 ;;		Nothing
   535 ;; This function is called by:
   536 ;;		_init_UART
   537 ;; This function uses a non-reentrant model
   538 ;;
   539                           
   540                           	psect	text2
   541  00FAF4                     __ptext2:
   542                           	opt stack 0
   543  00FAF4                     _OpenUSART:
   544                           	opt stack 29
   545                           
   546                           ;incstack = 0
   547                           ;OpenUSART@config stored from wreg
   548  00FAF4  6E03               	movwf	OpenUSART@config,c
   549  00FAF6  0E00               	movlw	0
   550  00FAF8  6EAC               	movwf	4012,c	;volatile
   551  00FAFA  0E00               	movlw	0
   552  00FAFC  6EAB               	movwf	4011,c	;volatile
   553  00FAFE  A003               	btfss	OpenUSART@config,0,c
   554  00FB00  D002               	goto	l1180
   555  00FB02  88AC               	bsf	4012,4,c	;volatile
   556  00FB04  D000               	goto	l1180
   557  00FB06                     l1180:
   558  00FB06  A203               	btfss	OpenUSART@config,1,c
   559  00FB08  D003               	goto	l1184
   560  00FB0A  8CAC               	bsf	4012,6,c	;volatile
   561  00FB0C  8CAB               	bsf	4011,6,c	;volatile
   562  00FB0E  D000               	goto	l1184
   563  00FB10                     l1184:
   564  00FB10  A403               	btfss	OpenUSART@config,2,c
   565  00FB12  D002               	goto	l1188
   566  00FB14  8EAC               	bsf	4012,7,c	;volatile
   567  00FB16  D000               	goto	l1188
   568  00FB18                     l1188:
   569  00FB18  A603               	btfss	OpenUSART@config,3,c
   570  00FB1A  D002               	goto	l215
   571  00FB1C  88AB               	bsf	4011,4,c	;volatile
   572  00FB1E  D002               	goto	l1192
   573  00FB20                     l215:
   574  00FB20  8AAB               	bsf	4011,5,c	;volatile
   575  00FB22  D000               	goto	l1192
   576  00FB24                     l1192:
   577  00FB24  B803               	btfsc	OpenUSART@config,4,c
   578  00FB26  84AC               	bsf	4012,2,c	;volatile
   579  00FB28  989E               	bcf	3998,4,c	;volatile
   580  00FB2A  AA03               	btfss	OpenUSART@config,5,c
   581  00FB2C  D002               	goto	l1200
   582  00FB2E  86AB               	bsf	4011,3,c	;volatile
   583  00FB30  D000               	goto	l1200
   584  00FB32                     l1200:
   585  00FB32  AC03               	btfss	OpenUSART@config,6,c
   586  00FB34  D002               	goto	l219
   587  00FB36  8A9D               	bsf	3997,5,c	;volatile
   588  00FB38  D001               	goto	l220
   589  00FB3A                     l219:
   590  00FB3A  9A9D               	bcf	3997,5,c	;volatile
   591  00FB3C                     l220:
   592  00FB3C  9A9E               	bcf	3998,5,c	;volatile
   593  00FB3E  AE03               	btfss	OpenUSART@config,7,c
   594  00FB40  D002               	goto	l221
   595  00FB42  889D               	bsf	3997,4,c	;volatile
   596  00FB44  D001               	goto	l222
   597  00FB46                     l221:
   598  00FB46  989D               	bcf	3997,4,c	;volatile
   599  00FB48                     l222:
   600  00FB48  C001  FFAF         	movff	OpenUSART@spbrg,4015	;volatile
   601  00FB4C  5002               	movf	OpenUSART@spbrg+1,w,c
   602  00FB4E  6EB0               	movwf	4016,c	;volatile
   603  00FB50  8AAC               	bsf	4012,5,c	;volatile
   604  00FB52  8EAB               	bsf	4011,7,c	;volatile
   605  00FB54  9C94               	bcf	3988,6,c	;volatile
   606  00FB56  8E94               	bsf	3988,7,c	;volatile
   607  00FB58  B8AC               	btfsc	4012,4,c	;volatile
   608  00FB5A  BEAC               	btfsc	4012,7,c	;volatile
   609  00FB5C  D002               	goto	l224
   610  00FB5E  8C94               	bsf	3988,6,c	;volatile
   611  00FB60  D000               	goto	l224
   612  00FB62                     l224:
   613  00FB62  0012               	return		;funcret
   614  00FB64                     __end_of_OpenUSART:
   615                           	opt stack 0
   616                           tblptru	equ	0xFF8
   617                           tblptrh	equ	0xFF7
   618                           tblptrl	equ	0xFF6
   619                           tablat	equ	0xFF5
   620                           postinc0	equ	0xFEE
   621                           postdec1	equ	0xFE5
   622                           fsr1l	equ	0xFE1
   623                           status	equ	0xFD8
   624                           
   625 ;; *************** function _get_full_ADC *****************
   626 ;; Defined at:
   627 ;;		line 135 in file "Lab6.c"
   628 ;; Parameters:    Size  Location     Type
   629 ;;		None
   630 ;; Auto vars:     Size  Location     Type
   631 ;;  result          2    4[COMRAM] int 
   632 ;; Return value:  Size  Location     Type
   633 ;;                  2    0[COMRAM] unsigned int 
   634 ;; Registers used:
   635 ;;		wreg, status,2, status,0
   636 ;; Tracked objects:
   637 ;;		On entry : 0/0
   638 ;;		On exit  : 0/0
   639 ;;		Unchanged: 0/0
   640 ;; Data sizes:     COMRAM   BANK0   BANK1   BANK2   BANK3   BANK4   BANK5   BANK6   BANK7   BANK8   BANK9  BANK10  BANK1
      +1  BANK12  BANK13  BANK14  BANK15
   641 ;;      Params:         2       0       0       0       0       0       0       0       0       0       0       0       
      +0       0       0       0       0
   642 ;;      Locals:         2       0       0       0       0       0       0       0       0       0       0       0       
      +0       0       0       0       0
   643 ;;      Temps:          2       0       0       0       0       0       0       0       0       0       0       0       
      +0       0       0       0       0
   644 ;;      Totals:         6       0       0       0       0       0       0       0       0       0       0       0       
      +0       0       0       0       0
   645 ;;Total ram usage:        6 bytes
   646 ;; Hardware stack levels used:    1
   647 ;; This function calls:
   648 ;;		Nothing
   649 ;; This function is called by:
   650 ;;		_main
   651 ;; This function uses a non-reentrant model
   652 ;;
   653                           
   654                           	psect	text3
   655  00F902                     __ptext3:
   656                           	opt stack 0
   657  00F902                     _get_full_ADC:
   658                           	opt stack 30
   659                           
   660                           ;Lab6.c: 136: int result;
   661                           ;Lab6.c: 137: ADCON0bits.GO=1;
   662                           
   663                           ;incstack = 0
   664  00F902  82C2               	bsf	4034,1,c	;volatile
   665                           
   666                           ;Lab6.c: 139: while(ADCON0bits.DONE==1);
   667  00F904  D000               	goto	l97
   668  00F906                     l97:
   669  00F906  B2C2               	btfsc	4034,1,c	;volatile
   670  00F908  D7FE               	goto	l97
   671                           
   672                           ;Lab6.c: 141: result = (ADRESH * 0x100) + ADRESL;
   673  00F90A  50C4               	movf	4036,w,c	;volatile
   674  00F90C  6E04               	movwf	(??_get_full_ADC+1)& (0+255),c
   675  00F90E  6A03               	clrf	??_get_full_ADC& (0+255),c
   676  00F910  50C3               	movf	4035,w,c	;volatile
   677  00F912  2403               	addwf	??_get_full_ADC,w,c
   678  00F914  6E05               	movwf	get_full_ADC@result,c
   679  00F916  0E00               	movlw	0
   680  00F918  2004               	addwfc	??_get_full_ADC+1,w,c
   681  00F91A  6E06               	movwf	get_full_ADC@result+1,c
   682                           
   683                           ;Lab6.c: 144: return result;
   684  00F91C  C005  F001         	movff	get_full_ADC@result,?_get_full_ADC
   685  00F920  C006  F002         	movff	get_full_ADC@result+1,?_get_full_ADC+1
   686  00F924  D000               	goto	l100
   687  00F926                     l100:
   688  00F926  0012               	return		;funcret
   689  00F928                     __end_of_get_full_ADC:
   690                           	opt stack 0
   691                           tblptru	equ	0xFF8
   692                           tblptrh	equ	0xFF7
   693                           tblptrl	equ	0xFF6
   694                           tablat	equ	0xFF5
   695                           postinc0	equ	0xFEE
   696                           postdec1	equ	0xFE5
   697                           fsr1l	equ	0xFE1
   698                           status	equ	0xFD8
   699                           
   700 ;; *************** function ___fttol *****************
   701 ;; Defined at:
   702 ;;		line 44 in file "C:\Program Files (x86)\Microchip\xc8\v1.34\sources\common\fttol.c"
   703 ;; Parameters:    Size  Location     Type
   704 ;;  f1              3    0[COMRAM] float 
   705 ;; Auto vars:     Size  Location     Type
   706 ;;  lval            4   10[COMRAM] unsigned long 
   707 ;;  exp1            1   14[COMRAM] unsigned char 
   708 ;;  sign1           1    9[COMRAM] unsigned char 
   709 ;; Return value:  Size  Location     Type
   710 ;;                  4    0[COMRAM] long 
   711 ;; Registers used:
   712 ;;		wreg, status,2, status,0
   713 ;; Tracked objects:
   714 ;;		On entry : 0/0
   715 ;;		On exit  : 0/0
   716 ;;		Unchanged: 0/0
   717 ;; Data sizes:     COMRAM   BANK0   BANK1   BANK2   BANK3   BANK4   BANK5   BANK6   BANK7   BANK8   BANK9  BANK10  BANK1
      +1  BANK12  BANK13  BANK14  BANK15
   718 ;;      Params:         4       0       0       0       0       0       0       0       0       0       0       0       
      +0       0       0       0       0
   719 ;;      Locals:         6       0       0       0       0       0       0       0       0       0       0       0       
      +0       0       0       0       0
   720 ;;      Temps:          5       0       0       0       0       0       0       0       0       0       0       0       
      +0       0       0       0       0
   721 ;;      Totals:        15       0       0       0       0       0       0       0       0       0       0       0       
      +0       0       0       0       0
   722 ;;Total ram usage:       15 bytes
   723 ;; Hardware stack levels used:    1
   724 ;; This function calls:
   725 ;;		Nothing
   726 ;; This function is called by:
   727 ;;		_main
   728 ;; This function uses a non-reentrant model
   729 ;;
   730                           
   731                           	psect	text4
   732  00FE22                     __ptext4:
   733                           	opt stack 0
   734  00FE22                     ___fttol:
   735                           	opt stack 30
   736                           
   737                           ;incstack = 0
   738  00FE22  C003  F005         	movff	___fttol@f1+2,??___fttol
   739  00FE26  6A06               	clrf	(??___fttol+1)& (0+255),c
   740  00FE28  6A07               	clrf	(??___fttol+2)& (0+255),c
   741  00FE2A  3402               	rlcf	___fttol@f1+1,w,c
   742  00FE2C  3605               	rlcf	??___fttol& (0+255),f,c
   743  00FE2E  E301               	bnc	u791
   744  00FE30  8006               	bsf	(??___fttol+1)& (0+255),0,c
   745  00FE32                     u791:
   746  00FE32  5005               	movf	??___fttol,w,c
   747  00FE34  6E0F               	movwf	___fttol@exp1,c
   748  00FE36  500F               	movf	___fttol@exp1,w,c
   749  00FE38  A4D8               	btfss	status,2,c
   750  00FE3A  D002               	goto	l1400
   751  00FE3C  D039               	goto	l1424
   752  00FE3E  D063               	goto	l643
   753  00FE40                     l1400:
   754  00FE40  0E17               	movlw	23
   755  00FE42  6E05               	movwf	??___fttol& (0+255),c
   756  00FE44  C001  F006         	movff	___fttol@f1,??___fttol+1
   757  00FE48  C002  F007         	movff	___fttol@f1+1,??___fttol+2
   758  00FE4C  C003  F008         	movff	___fttol@f1+2,??___fttol+3
   759  00FE50  2805               	incf	??___fttol,w,c
   760  00FE52  6E09               	movwf	(??___fttol+4)& (0+255),c
   761  00FE54  D004               	goto	u810
   762  00FE56                     u815:
   763  00FE56  90D8               	bcf	status,0,c
   764  00FE58  3208               	rrcf	??___fttol+3,f,c
   765  00FE5A  3207               	rrcf	??___fttol+2,f,c
   766  00FE5C  3206               	rrcf	??___fttol+1,f,c
   767  00FE5E                     u810:
   768  00FE5E  2E09               	decfsz	(??___fttol+4)& (0+255),f,c
   769  00FE60  D7FA               	goto	u815
   770  00FE62  5006               	movf	??___fttol+1,w,c
   771  00FE64  6E0A               	movwf	___fttol@sign1,c
   772  00FE66  8E02               	bsf	___fttol@f1+1,7,c
   773  00FE68  0EFF               	movlw	255
   774  00FE6A  1601               	andwf	___fttol@f1,f,c
   775  00FE6C  0EFF               	movlw	255
   776  00FE6E  1602               	andwf	___fttol@f1+1,f,c
   777  00FE70  0E00               	movlw	0
   778  00FE72  1603               	andwf	___fttol@f1+2,f,c
   779  00FE74  5001               	movf	___fttol@f1,w,c
   780  00FE76  6E0B               	movwf	___fttol@lval,c
   781  00FE78  5002               	movf	___fttol@f1+1,w,c
   782  00FE7A  6E0C               	movwf	___fttol@lval+1,c
   783  00FE7C  5003               	movf	___fttol@f1+2,w,c
   784  00FE7E  6E0D               	movwf	___fttol@lval+2,c
   785  00FE80  6A0E               	clrf	___fttol@lval+3,c
   786  00FE82  0E8E               	movlw	142
   787  00FE84  5E0F               	subwf	___fttol@exp1,f,c
   788  00FE86  AE0F               	btfss	___fttol@exp1,7,c
   789  00FE88  D010               	goto	l1422
   790  00FE8A  500F               	movf	___fttol@exp1,w,c
   791  00FE8C  0A80               	xorlw	128
   792  00FE8E  0F8F               	addlw	143
   793  00FE90  B0D8               	btfsc	status,0,c
   794  00FE92  D003               	goto	l1418
   795  00FE94  D00D               	goto	l1424
   796  00FE96  D037               	goto	l643
   797  00FE98  D000               	goto	l1418
   798  00FE9A                     l1418:
   799  00FE9A  90D8               	bcf	status,0,c
   800  00FE9C  320E               	rrcf	___fttol@lval+3,f,c
   801  00FE9E  320D               	rrcf	___fttol@lval+2,f,c
   802  00FEA0  320C               	rrcf	___fttol@lval+1,f,c
   803  00FEA2  320B               	rrcf	___fttol@lval,f,c
   804  00FEA4  3E0F               	incfsz	___fttol@exp1,f,c
   805  00FEA6  D7F9               	goto	l1418
   806  00FEA8  D019               	goto	l1432
   807  00FEAA                     l1422:
   808  00FEAA  0E17               	movlw	23
   809  00FEAC  640F               	cpfsgt	___fttol@exp1,c
   810  00FEAE  D011               	goto	l1430
   811  00FEB0                     l1424:
   812  00FEB0  0E00               	movlw	0
   813  00FEB2  6E01               	movwf	?___fttol,c
   814  00FEB4  0E00               	movlw	0
   815  00FEB6  6E02               	movwf	?___fttol+1,c
   816  00FEB8  0E00               	movlw	0
   817  00FEBA  6E03               	movwf	?___fttol+2,c
   818  00FEBC  0E00               	movlw	0
   819  00FEBE  6E04               	movwf	?___fttol+3,c
   820  00FEC0  D022               	goto	l643
   821  00FEC2  D007               	goto	l1430
   822  00FEC4                     l1428:
   823  00FEC4  90D8               	bcf	status,0,c
   824  00FEC6  360B               	rlcf	___fttol@lval,f,c
   825  00FEC8  360C               	rlcf	___fttol@lval+1,f,c
   826  00FECA  360D               	rlcf	___fttol@lval+2,f,c
   827  00FECC  360E               	rlcf	___fttol@lval+3,f,c
   828  00FECE  060F               	decf	___fttol@exp1,f,c
   829  00FED0  D000               	goto	l1430
   830  00FED2                     l1430:
   831  00FED2  500F               	movf	___fttol@exp1,w,c
   832  00FED4  B4D8               	btfsc	status,2,c
   833  00FED6  D002               	goto	l1432
   834  00FED8  D7F5               	goto	l1428
   835  00FEDA  D000               	goto	l1432
   836  00FEDC                     l1432:
   837  00FEDC  500A               	movf	___fttol@sign1,w,c
   838  00FEDE  B4D8               	btfsc	status,2,c
   839  00FEE0  D009               	goto	l1436
   840  00FEE2  1E0E               	comf	___fttol@lval+3,f,c
   841  00FEE4  1E0D               	comf	___fttol@lval+2,f,c
   842  00FEE6  1E0C               	comf	___fttol@lval+1,f,c
   843  00FEE8  6C0B               	negf	___fttol@lval,c
   844  00FEEA  0E00               	movlw	0
   845  00FEEC  220C               	addwfc	___fttol@lval+1,f,c
   846  00FEEE  220D               	addwfc	___fttol@lval+2,f,c
   847  00FEF0  220E               	addwfc	___fttol@lval+3,f,c
   848  00FEF2  D000               	goto	l1436
   849  00FEF4                     l1436:
   850  00FEF4  C00B  F001         	movff	___fttol@lval,?___fttol
   851  00FEF8  C00C  F002         	movff	___fttol@lval+1,?___fttol+1
   852  00FEFC  C00D  F003         	movff	___fttol@lval+2,?___fttol+2
   853  00FF00  C00E  F004         	movff	___fttol@lval+3,?___fttol+3
   854  00FF04  D000               	goto	l643
   855  00FF06                     l643:
   856  00FF06  0012               	return		;funcret
   857  00FF08                     __end_of___fttol:
   858                           	opt stack 0
   859                           tblptru	equ	0xFF8
   860                           tblptrh	equ	0xFF7
   861                           tblptrl	equ	0xFF6
   862                           tablat	equ	0xFF5
   863                           postinc0	equ	0xFEE
   864                           postdec1	equ	0xFE5
   865                           fsr1l	equ	0xFE1
   866                           status	equ	0xFD8
   867                           
   868 ;; *************** function ___ftmul *****************
   869 ;; Defined at:
   870 ;;		line 62 in file "C:\Program Files (x86)\Microchip\xc8\v1.34\sources\common\ftmul.c"
   871 ;; Parameters:    Size  Location     Type
   872 ;;  f1              3   12[COMRAM] float 
   873 ;;  f2              3   15[COMRAM] float 
   874 ;; Auto vars:     Size  Location     Type
   875 ;;  f3_as_produc    3   22[COMRAM] unsigned um
   876 ;;  sign            1   26[COMRAM] unsigned char 
   877 ;;  cntr            1   25[COMRAM] unsigned char 
   878 ;;  exp             1   21[COMRAM] unsigned char 
   879 ;; Return value:  Size  Location     Type
   880 ;;                  3   12[COMRAM] float 
   881 ;; Registers used:
   882 ;;		wreg, status,2, status,0, cstack
   883 ;; Tracked objects:
   884 ;;		On entry : 0/0
   885 ;;		On exit  : 0/0
   886 ;;		Unchanged: 0/0
   887 ;; Data sizes:     COMRAM   BANK0   BANK1   BANK2   BANK3   BANK4   BANK5   BANK6   BANK7   BANK8   BANK9  BANK10  BANK1
      +1  BANK12  BANK13  BANK14  BANK15
   888 ;;      Params:         6       0       0       0       0       0       0       0       0       0       0       0       
      +0       0       0       0       0
   889 ;;      Locals:         6       0       0       0       0       0       0       0       0       0       0       0       
      +0       0       0       0       0
   890 ;;      Temps:          3       0       0       0       0       0       0       0       0       0       0       0       
      +0       0       0       0       0
   891 ;;      Totals:        15       0       0       0       0       0       0       0       0       0       0       0       
      +0       0       0       0       0
   892 ;;Total ram usage:       15 bytes
   893 ;; Hardware stack levels used:    1
   894 ;; Hardware stack levels required when called:    1
   895 ;; This function calls:
   896 ;;		___ftpack
   897 ;; This function is called by:
   898 ;;		_main
   899 ;; This function uses a non-reentrant model
   900 ;;
   901                           
   902                           	psect	text5
   903  00FF08                     __ptext5:
   904                           	opt stack 0
   905  00FF08                     ___ftmul:
   906                           	opt stack 29
   907                           
   908                           ;incstack = 0
   909  00FF08  C00F  F013         	movff	___ftmul@f1+2,??___ftmul
   910  00FF0C  6A14               	clrf	(??___ftmul+1)& (0+255),c
   911  00FF0E  6A15               	clrf	(??___ftmul+2)& (0+255),c
   912  00FF10  340E               	rlcf	___ftmul@f1+1,w,c
   913  00FF12  3613               	rlcf	??___ftmul& (0+255),f,c
   914  00FF14  E301               	bnc	u721
   915  00FF16  8014               	bsf	(??___ftmul+1)& (0+255),0,c
   916  00FF18                     u721:
   917  00FF18  5013               	movf	??___ftmul,w,c
   918  00FF1A  6E16               	movwf	___ftmul@exp,c
   919  00FF1C  5016               	movf	___ftmul@exp,w,c
   920  00FF1E  A4D8               	btfss	status,2,c
   921  00FF20  D002               	goto	l1340
   922  00FF22  D00E               	goto	l1342
   923  00FF24  D06C               	goto	l622
   924  00FF26                     l1340:
   925  00FF26  C012  F013         	movff	___ftmul@f2+2,??___ftmul
   926  00FF2A  6A14               	clrf	(??___ftmul+1)& (0+255),c
   927  00FF2C  6A15               	clrf	(??___ftmul+2)& (0+255),c
   928  00FF2E  3411               	rlcf	___ftmul@f2+1,w,c
   929  00FF30  3613               	rlcf	??___ftmul& (0+255),f,c
   930  00FF32  E301               	bnc	u741
   931  00FF34  8014               	bsf	(??___ftmul+1)& (0+255),0,c
   932  00FF36                     u741:
   933  00FF36  5013               	movf	??___ftmul,w,c
   934  00FF38  6E1B               	movwf	___ftmul@sign,c
   935  00FF3A  501B               	movf	___ftmul@sign,w,c
   936  00FF3C  A4D8               	btfss	status,2,c
   937  00FF3E  D007               	goto	l1346
   938  00FF40                     l1342:
   939  00FF40  0E00               	movlw	0
   940  00FF42  6E0D               	movwf	?___ftmul,c
   941  00FF44  0E00               	movlw	0
   942  00FF46  6E0E               	movwf	?___ftmul+1,c
   943  00FF48  0E00               	movlw	0
   944  00FF4A  6E0F               	movwf	?___ftmul+2,c
   945  00FF4C  D058               	goto	l622
   946  00FF4E                     l1346:
   947  00FF4E  501B               	movf	___ftmul@sign,w,c
   948  00FF50  0F7B               	addlw	123
   949  00FF52  2616               	addwf	___ftmul@exp,f,c
   950  00FF54  C00F  F01B         	movff	___ftmul@f1+2,___ftmul@sign
   951  00FF58  5012               	movf	___ftmul@f2+2,w,c
   952  00FF5A  1A1B               	xorwf	___ftmul@sign,f,c
   953  00FF5C  0E80               	movlw	128
   954  00FF5E  161B               	andwf	___ftmul@sign,f,c
   955  00FF60  8E0E               	bsf	___ftmul@f1+1,7,c
   956  00FF62  8E11               	bsf	___ftmul@f2+1,7,c
   957  00FF64  0EFF               	movlw	255
   958  00FF66  1610               	andwf	___ftmul@f2,f,c
   959  00FF68  0EFF               	movlw	255
   960  00FF6A  1611               	andwf	___ftmul@f2+1,f,c
   961  00FF6C  0E00               	movlw	0
   962  00FF6E  1612               	andwf	___ftmul@f2+2,f,c
   963  00FF70  0E00               	movlw	0
   964  00FF72  6E17               	movwf	___ftmul@f3_as_product,c
   965  00FF74  0E00               	movlw	0
   966  00FF76  6E18               	movwf	___ftmul@f3_as_product+1,c
   967  00FF78  0E00               	movlw	0
   968  00FF7A  6E19               	movwf	___ftmul@f3_as_product+2,c
   969  00FF7C  0E07               	movlw	7
   970  00FF7E  6E1A               	movwf	___ftmul@cntr,c
   971  00FF80  D000               	goto	l1360
   972  00FF82                     l1360:
   973  00FF82  A00D               	btfss	___ftmul@f1,0,c
   974  00FF84  D007               	goto	l1364
   975  00FF86  5010               	movf	___ftmul@f2,w,c
   976  00FF88  2617               	addwf	___ftmul@f3_as_product,f,c
   977  00FF8A  5011               	movf	___ftmul@f2+1,w,c
   978  00FF8C  2218               	addwfc	___ftmul@f3_as_product+1,f,c
   979  00FF8E  5012               	movf	___ftmul@f2+2,w,c
   980  00FF90  2219               	addwfc	___ftmul@f3_as_product+2,f,c
   981  00FF92  D000               	goto	l1364
   982  00FF94                     l1364:
   983  00FF94  90D8               	bcf	status,0,c
   984  00FF96  320F               	rrcf	___ftmul@f1+2,f,c
   985  00FF98  320E               	rrcf	___ftmul@f1+1,f,c
   986  00FF9A  320D               	rrcf	___ftmul@f1,f,c
   987  00FF9C  90D8               	bcf	status,0,c
   988  00FF9E  3610               	rlcf	___ftmul@f2,f,c
   989  00FFA0  3611               	rlcf	___ftmul@f2+1,f,c
   990  00FFA2  3612               	rlcf	___ftmul@f2+2,f,c
   991  00FFA4  2E1A               	decfsz	___ftmul@cntr,f,c
   992  00FFA6  D7ED               	goto	l1360
   993  00FFA8  D000               	goto	l1368
   994  00FFAA                     l1368:
   995  00FFAA  0E09               	movlw	9
   996  00FFAC  6E1A               	movwf	___ftmul@cntr,c
   997  00FFAE  D000               	goto	l1370
   998  00FFB0                     l1370:
   999  00FFB0  A00D               	btfss	___ftmul@f1,0,c
  1000  00FFB2  D007               	goto	l1374
  1001  00FFB4  5010               	movf	___ftmul@f2,w,c
  1002  00FFB6  2617               	addwf	___ftmul@f3_as_product,f,c
  1003  00FFB8  5011               	movf	___ftmul@f2+1,w,c
  1004  00FFBA  2218               	addwfc	___ftmul@f3_as_product+1,f,c
  1005  00FFBC  5012               	movf	___ftmul@f2+2,w,c
  1006  00FFBE  2219               	addwfc	___ftmul@f3_as_product+2,f,c
  1007  00FFC0  D000               	goto	l1374
  1008  00FFC2                     l1374:
  1009  00FFC2  90D8               	bcf	status,0,c
  1010  00FFC4  320F               	rrcf	___ftmul@f1+2,f,c
  1011  00FFC6  320E               	rrcf	___ftmul@f1+1,f,c
  1012  00FFC8  320D               	rrcf	___ftmul@f1,f,c
  1013  00FFCA  90D8               	bcf	status,0,c
  1014  00FFCC  3219               	rrcf	___ftmul@f3_as_product+2,f,c
  1015  00FFCE  3218               	rrcf	___ftmul@f3_as_product+1,f,c
  1016  00FFD0  3217               	rrcf	___ftmul@f3_as_product,f,c
  1017  00FFD2  2E1A               	decfsz	___ftmul@cntr,f,c
  1018  00FFD4  D7ED               	goto	l1370
  1019  00FFD6  D000               	goto	l1378
  1020  00FFD8                     l1378:
  1021  00FFD8  C017  F001         	movff	___ftmul@f3_as_product,___ftpack@arg
  1022  00FFDC  C018  F002         	movff	___ftmul@f3_as_product+1,___ftpack@arg+1
  1023  00FFE0  C019  F003         	movff	___ftmul@f3_as_product+2,___ftpack@arg+2
  1024  00FFE4  C016  F004         	movff	___ftmul@exp,___ftpack@exp
  1025  00FFE8  C01B  F005         	movff	___ftmul@sign,___ftpack@sign
  1026  00FFEC  ECAE  F07E         	call	___ftpack	;wreg free
  1027  00FFF0  C001  F00D         	movff	?___ftpack,?___ftmul
  1028  00FFF4  C002  F00E         	movff	?___ftpack+1,?___ftmul+1
  1029  00FFF8  C003  F00F         	movff	?___ftpack+2,?___ftmul+2
  1030  00FFFC  D000               	goto	l622
  1031  00FFFE                     l622:
  1032  00FFFE  0012               	return		;funcret
  1033  010000                     __end_of___ftmul:
  1034                           	opt stack 0
  1035                           tblptru	equ	0xFF8
  1036                           tblptrh	equ	0xFF7
  1037                           tblptrl	equ	0xFF6
  1038                           tablat	equ	0xFF5
  1039                           postinc0	equ	0xFEE
  1040                           postdec1	equ	0xFE5
  1041                           fsr1l	equ	0xFE1
  1042                           status	equ	0xFD8
  1043                           
  1044 ;; *************** function ___awtoft *****************
  1045 ;; Defined at:
  1046 ;;		line 32 in file "C:\Program Files (x86)\Microchip\xc8\v1.34\sources\common\awtoft.c"
  1047 ;; Parameters:    Size  Location     Type
  1048 ;;  c               2    8[COMRAM] int 
  1049 ;; Auto vars:     Size  Location     Type
  1050 ;;  sign            1   11[COMRAM] unsigned char 
  1051 ;; Return value:  Size  Location     Type
  1052 ;;                  3    8[COMRAM] float 
  1053 ;; Registers used:
  1054 ;;		wreg, status,2, status,0, cstack
  1055 ;; Tracked objects:
  1056 ;;		On entry : 0/0
  1057 ;;		On exit  : 0/0
  1058 ;;		Unchanged: 0/0
  1059 ;; Data sizes:     COMRAM   BANK0   BANK1   BANK2   BANK3   BANK4   BANK5   BANK6   BANK7   BANK8   BANK9  BANK10  BANK1
      +1  BANK12  BANK13  BANK14  BANK15
  1060 ;;      Params:         3       0       0       0       0       0       0       0       0       0       0       0       
      +0       0       0       0       0
  1061 ;;      Locals:         1       0       0       0       0       0       0       0       0       0       0       0       
      +0       0       0       0       0
  1062 ;;      Temps:          0       0       0       0       0       0       0       0       0       0       0       0       
      +0       0       0       0       0
  1063 ;;      Totals:         4       0       0       0       0       0       0       0       0       0       0       0       
      +0       0       0       0       0
  1064 ;;Total ram usage:        4 bytes
  1065 ;; Hardware stack levels used:    1
  1066 ;; Hardware stack levels required when called:    1
  1067 ;; This function calls:
  1068 ;;		___ftpack
  1069 ;; This function is called by:
  1070 ;;		_main
  1071 ;; This function uses a non-reentrant model
  1072 ;;
  1073                           
  1074                           	psect	text6
  1075  00FA60                     __ptext6:
  1076                           	opt stack 0
  1077  00FA60                     ___awtoft:
  1078                           	opt stack 29
  1079                           
  1080                           ;incstack = 0
  1081  00FA60  0E00               	movlw	0
  1082  00FA62  6E0C               	movwf	___awtoft@sign,c
  1083  00FA64  AE0A               	btfss	___awtoft@c+1,7,c
  1084  00FA66  D007               	goto	l1390
  1085  00FA68  6C09               	negf	___awtoft@c,c
  1086  00FA6A  1E0A               	comf	___awtoft@c+1,f,c
  1087  00FA6C  B0D8               	btfsc	status,0,c
  1088  00FA6E  2A0A               	incf	___awtoft@c+1,f,c
  1089  00FA70  0E01               	movlw	1
  1090  00FA72  6E0C               	movwf	___awtoft@sign,c
  1091  00FA74  D000               	goto	l1390
  1092  00FA76                     l1390:
  1093  00FA76  C009  F001         	movff	___awtoft@c,___ftpack@arg
  1094  00FA7A  C00A  F002         	movff	___awtoft@c+1,___ftpack@arg+1
  1095  00FA7E  6A03               	clrf	___ftpack@arg+2,c
  1096  00FA80  0E8E               	movlw	142
  1097  00FA82  6E04               	movwf	___ftpack@exp,c
  1098  00FA84  C00C  F005         	movff	___awtoft@sign,___ftpack@sign
  1099  00FA88  ECAE  F07E         	call	___ftpack	;wreg free
  1100  00FA8C  C001  F009         	movff	?___ftpack,?___awtoft
  1101  00FA90  C002  F00A         	movff	?___ftpack+1,?___awtoft+1
  1102  00FA94  C003  F00B         	movff	?___ftpack+2,?___awtoft+2
  1103  00FA98  D000               	goto	l445
  1104  00FA9A                     l445:
  1105  00FA9A  0012               	return		;funcret
  1106  00FA9C                     __end_of___awtoft:
  1107                           	opt stack 0
  1108                           tblptru	equ	0xFF8
  1109                           tblptrh	equ	0xFF7
  1110                           tblptrl	equ	0xFF6
  1111                           tablat	equ	0xFF5
  1112                           postinc0	equ	0xFEE
  1113                           postdec1	equ	0xFE5
  1114                           fsr1l	equ	0xFE1
  1115                           status	equ	0xFD8
  1116                           
  1117 ;; *************** function ___ftpack *****************
  1118 ;; Defined at:
  1119 ;;		line 62 in file "C:\Program Files (x86)\Microchip\xc8\v1.34\sources\common\float.c"
  1120 ;; Parameters:    Size  Location     Type
  1121 ;;  arg             3    0[COMRAM] unsigned um
  1122 ;;  exp             1    3[COMRAM] unsigned char 
  1123 ;;  sign            1    4[COMRAM] unsigned char 
  1124 ;; Auto vars:     Size  Location     Type
  1125 ;;		None
  1126 ;; Return value:  Size  Location     Type
  1127 ;;                  3    0[COMRAM] float 
  1128 ;; Registers used:
  1129 ;;		wreg, status,2, status,0
  1130 ;; Tracked objects:
  1131 ;;		On entry : 0/0
  1132 ;;		On exit  : 0/0
  1133 ;;		Unchanged: 0/0
  1134 ;; Data sizes:     COMRAM   BANK0   BANK1   BANK2   BANK3   BANK4   BANK5   BANK6   BANK7   BANK8   BANK9  BANK10  BANK1
      +1  BANK12  BANK13  BANK14  BANK15
  1135 ;;      Params:         5       0       0       0       0       0       0       0       0       0       0       0       
      +0       0       0       0       0
  1136 ;;      Locals:         0       0       0       0       0       0       0       0       0       0       0       0       
      +0       0       0       0       0
  1137 ;;      Temps:          3       0       0       0       0       0       0       0       0       0       0       0       
      +0       0       0       0       0
  1138 ;;      Totals:         8       0       0       0       0       0       0       0       0       0       0       0       
      +0       0       0       0       0
  1139 ;;Total ram usage:        8 bytes
  1140 ;; Hardware stack levels used:    1
  1141 ;; This function calls:
  1142 ;;		Nothing
  1143 ;; This function is called by:
  1144 ;;		___awtoft
  1145 ;;		___ftmul
  1146 ;; This function uses a non-reentrant model
  1147 ;;
  1148                           
  1149                           	psect	text7
  1150  00FD5C                     __ptext7:
  1151                           	opt stack 0
  1152  00FD5C                     ___ftpack:
  1153                           	opt stack 29
  1154                           
  1155                           ;incstack = 0
  1156  00FD5C  5004               	movf	___ftpack@exp,w,c
  1157  00FD5E  B4D8               	btfsc	status,2,c
  1158  00FD60  D005               	goto	l1254
  1159  00FD62  5001               	movf	___ftpack@arg,w,c
  1160  00FD64  1002               	iorwf	___ftpack@arg+1,w,c
  1161  00FD66  1003               	iorwf	___ftpack@arg+2,w,c
  1162  00FD68  A4D8               	btfss	status,2,c
  1163  00FD6A  D00E               	goto	l1260
  1164  00FD6C                     l1254:
  1165  00FD6C  0E00               	movlw	0
  1166  00FD6E  6E01               	movwf	?___ftpack,c
  1167  00FD70  0E00               	movlw	0
  1168  00FD72  6E02               	movwf	?___ftpack+1,c
  1169  00FD74  0E00               	movlw	0
  1170  00FD76  6E03               	movwf	?___ftpack+2,c
  1171  00FD78  D053               	goto	l535
  1172  00FD7A  D006               	goto	l1260
  1173  00FD7C                     l1258:
  1174  00FD7C  2A04               	incf	___ftpack@exp,f,c
  1175  00FD7E  90D8               	bcf	status,0,c
  1176  00FD80  3203               	rrcf	___ftpack@arg+2,f,c
  1177  00FD82  3202               	rrcf	___ftpack@arg+1,f,c
  1178  00FD84  3201               	rrcf	___ftpack@arg,f,c
  1179  00FD86  D000               	goto	l1260
  1180  00FD88                     l1260:
  1181  00FD88  0E00               	movlw	0
  1182  00FD8A  1401               	andwf	___ftpack@arg,w,c
  1183  00FD8C  6E06               	movwf	??___ftpack& (0+255),c
  1184  00FD8E  0E00               	movlw	0
  1185  00FD90  1402               	andwf	___ftpack@arg+1,w,c
  1186  00FD92  6E07               	movwf	(??___ftpack+1)& (0+255),c
  1187  00FD94  0EFE               	movlw	254
  1188  00FD96  1403               	andwf	___ftpack@arg+2,w,c
  1189  00FD98  6E08               	movwf	(??___ftpack+2)& (0+255),c
  1190  00FD9A  5006               	movf	??___ftpack,w,c
  1191  00FD9C  1007               	iorwf	??___ftpack+1,w,c
  1192  00FD9E  1008               	iorwf	??___ftpack+2,w,c
  1193  00FDA0  B4D8               	btfsc	status,2,c
  1194  00FDA2  D00E               	goto	l1266
  1195  00FDA4  D7EB               	goto	l1258
  1196  00FDA6  D00C               	goto	l1266
  1197  00FDA8                     l1262:
  1198  00FDA8  2A04               	incf	___ftpack@exp,f,c
  1199  00FDAA  0E01               	movlw	1
  1200  00FDAC  2601               	addwf	___ftpack@arg,f,c
  1201  00FDAE  0E00               	movlw	0
  1202  00FDB0  2202               	addwfc	___ftpack@arg+1,f,c
  1203  00FDB2  0E00               	movlw	0
  1204  00FDB4  2203               	addwfc	___ftpack@arg+2,f,c
  1205  00FDB6  90D8               	bcf	status,0,c
  1206  00FDB8  3203               	rrcf	___ftpack@arg+2,f,c
  1207  00FDBA  3202               	rrcf	___ftpack@arg+1,f,c
  1208  00FDBC  3201               	rrcf	___ftpack@arg,f,c
  1209  00FDBE  D000               	goto	l1266
  1210  00FDC0                     l1266:
  1211  00FDC0  0E00               	movlw	0
  1212  00FDC2  1401               	andwf	___ftpack@arg,w,c
  1213  00FDC4  6E06               	movwf	??___ftpack& (0+255),c
  1214  00FDC6  0E00               	movlw	0
  1215  00FDC8  1402               	andwf	___ftpack@arg+1,w,c
  1216  00FDCA  6E07               	movwf	(??___ftpack+1)& (0+255),c
  1217  00FDCC  0EFF               	movlw	255
  1218  00FDCE  1403               	andwf	___ftpack@arg+2,w,c
  1219  00FDD0  6E08               	movwf	(??___ftpack+2)& (0+255),c
  1220  00FDD2  5006               	movf	??___ftpack,w,c
  1221  00FDD4  1007               	iorwf	??___ftpack+1,w,c
  1222  00FDD6  1008               	iorwf	??___ftpack+2,w,c
  1223  00FDD8  B4D8               	btfsc	status,2,c
  1224  00FDDA  D008               	goto	l1270
  1225  00FDDC  D7E5               	goto	l1262
  1226  00FDDE  D006               	goto	l1270
  1227  00FDE0                     l1268:
  1228  00FDE0  0604               	decf	___ftpack@exp,f,c
  1229  00FDE2  90D8               	bcf	status,0,c
  1230  00FDE4  3601               	rlcf	___ftpack@arg,f,c
  1231  00FDE6  3602               	rlcf	___ftpack@arg+1,f,c
  1232  00FDE8  3603               	rlcf	___ftpack@arg+2,f,c
  1233  00FDEA  D000               	goto	l1270
  1234  00FDEC                     l1270:
  1235  00FDEC  BE02               	btfsc	___ftpack@arg+1,7,c
  1236  00FDEE  D004               	goto	l546
  1237  00FDF0  0E02               	movlw	2
  1238  00FDF2  6004               	cpfslt	___ftpack@exp,c
  1239  00FDF4  D7F5               	goto	l1268
  1240  00FDF6  D000               	goto	l546
  1241  00FDF8                     l546:
  1242  00FDF8  B004               	btfsc	___ftpack@exp,0,c
  1243  00FDFA  D002               	goto	l1276
  1244  00FDFC  9E02               	bcf	___ftpack@arg+1,7,c
  1245  00FDFE  D000               	goto	l1276
  1246  00FE00                     l1276:
  1247  00FE00  90D8               	bcf	status,0,c
  1248  00FE02  3204               	rrcf	___ftpack@exp,f,c
  1249  00FE04  5004               	movf	___ftpack@exp,w,c
  1250  00FE06  1203               	iorwf	___ftpack@arg+2,f,c
  1251  00FE08  5005               	movf	___ftpack@sign,w,c
  1252  00FE0A  B4D8               	btfsc	status,2,c
  1253  00FE0C  D002               	goto	l1282
  1254  00FE0E  8E03               	bsf	___ftpack@arg+2,7,c
  1255  00FE10  D000               	goto	l1282
  1256  00FE12                     l1282:
  1257  00FE12  C001  F001         	movff	___ftpack@arg,?___ftpack
  1258  00FE16  C002  F002         	movff	___ftpack@arg+1,?___ftpack+1
  1259  00FE1A  C003  F003         	movff	___ftpack@arg+2,?___ftpack+2
  1260  00FE1E  D000               	goto	l535
  1261  00FE20                     l535:
  1262  00FE20  0012               	return		;funcret
  1263  00FE22                     __end_of___ftpack:
  1264                           	opt stack 0
  1265                           tblptru	equ	0xFF8
  1266                           tblptrh	equ	0xFF7
  1267                           tblptrl	equ	0xFF6
  1268                           tablat	equ	0xFF5
  1269                           postinc0	equ	0xFEE
  1270                           postdec1	equ	0xFE5
  1271                           fsr1l	equ	0xFE1
  1272                           status	equ	0xFD8
  1273                           
  1274 ;; *************** function _Select_ADC_Channel *****************
  1275 ;; Defined at:
  1276 ;;		line 131 in file "Lab6.c"
  1277 ;; Parameters:    Size  Location     Type
  1278 ;;  channel         1    wreg     unsigned char 
  1279 ;; Auto vars:     Size  Location     Type
  1280 ;;  channel         1    0[COMRAM] unsigned char 
  1281 ;; Return value:  Size  Location     Type
  1282 ;;		None               void
  1283 ;; Registers used:
  1284 ;;		wreg, status,2, status,0, prodl, prodh
  1285 ;; Tracked objects:
  1286 ;;		On entry : 0/0
  1287 ;;		On exit  : 0/0
  1288 ;;		Unchanged: 0/0
  1289 ;; Data sizes:     COMRAM   BANK0   BANK1   BANK2   BANK3   BANK4   BANK5   BANK6   BANK7   BANK8   BANK9  BANK10  BANK1
      +1  BANK12  BANK13  BANK14  BANK15
  1290 ;;      Params:         0       0       0       0       0       0       0       0       0       0       0       0       
      +0       0       0       0       0
  1291 ;;      Locals:         1       0       0       0       0       0       0       0       0       0       0       0       
      +0       0       0       0       0
  1292 ;;      Temps:          0       0       0       0       0       0       0       0       0       0       0       0       
      +0       0       0       0       0
  1293 ;;      Totals:         1       0       0       0       0       0       0       0       0       0       0       0       
      +0       0       0       0       0
  1294 ;;Total ram usage:        1 bytes
  1295 ;; Hardware stack levels used:    1
  1296 ;; This function calls:
  1297 ;;		Nothing
  1298 ;; This function is called by:
  1299 ;;		_main
  1300 ;; This function uses a non-reentrant model
  1301 ;;
  1302                           
  1303                           	psect	text8
  1304  00F842                     __ptext8:
  1305                           	opt stack 0
  1306  00F842                     _Select_ADC_Channel:
  1307                           	opt stack 30
  1308                           
  1309                           ;incstack = 0
  1310                           ;Select_ADC_Channel@channel stored from wreg
  1311  00F842  6E01               	movwf	Select_ADC_Channel@channel,c
  1312                           
  1313                           ;Lab6.c: 133: ADCON0 = channel * 4 + 1;
  1314  00F844  5001               	movf	Select_ADC_Channel@channel,w,c
  1315  00F846  0D04               	mullw	4
  1316  00F848  28F3               	incf	prodl,w,c
  1317  00F84A  6EC2               	movwf	4034,c	;volatile
  1318  00F84C  0012               	return		;funcret
  1319  00F84E                     __end_of_Select_ADC_Channel:
  1320                           	opt stack 0
  1321                           tblptru	equ	0xFF8
  1322                           tblptrh	equ	0xFF7
  1323                           tblptrl	equ	0xFF6
  1324                           tablat	equ	0xFF5
  1325                           prodl	equ	0xFF3
  1326                           postinc0	equ	0xFEE
  1327                           postdec1	equ	0xFE5
  1328                           fsr1l	equ	0xFE1
  1329                           status	equ	0xFD8
  1330                           
  1331 ;; *************** function _Night_Mode *****************
  1332 ;; Defined at:
  1333 ;;		line 252 in file "Lab6.c"
  1334 ;; Parameters:    Size  Location     Type
  1335 ;;		None
  1336 ;; Auto vars:     Size  Location     Type
  1337 ;;		None
  1338 ;; Return value:  Size  Location     Type
  1339 ;;		None               void
  1340 ;; Registers used:
  1341 ;;		wreg, status,2, status,0, cstack
  1342 ;; Tracked objects:
  1343 ;;		On entry : 0/0
  1344 ;;		On exit  : 0/0
  1345 ;;		Unchanged: 0/0
  1346 ;; Data sizes:     COMRAM   BANK0   BANK1   BANK2   BANK3   BANK4   BANK5   BANK6   BANK7   BANK8   BANK9  BANK10  BANK1
      +1  BANK12  BANK13  BANK14  BANK15
  1347 ;;      Params:         0       0       0       0       0       0       0       0       0       0       0       0       
      +0       0       0       0       0
  1348 ;;      Locals:         0       0       0       0       0       0       0       0       0       0       0       0       
      +0       0       0       0       0
  1349 ;;      Temps:          0       0       0       0       0       0       0       0       0       0       0       0       
      +0       0       0       0       0
  1350 ;;      Totals:         0       0       0       0       0       0       0       0       0       0       0       0       
      +0       0       0       0       0
  1351 ;;Total ram usage:        0 bytes
  1352 ;; Hardware stack levels used:    1
  1353 ;; Hardware stack levels required when called:    3
  1354 ;; This function calls:
  1355 ;;		_Set_EW
  1356 ;;		_Set_EWLT
  1357 ;;		_Set_NS
  1358 ;;		_Set_NSLT
  1359 ;;		_Wait_N_Seconds
  1360 ;; This function is called by:
  1361 ;;		_main
  1362 ;; This function uses a non-reentrant model
  1363 ;;
  1364                           
  1365                           	psect	text9
  1366  00FC00                     __ptext9:
  1367                           	opt stack 0
  1368  00FC00                     _Night_Mode:
  1369                           	opt stack 27
  1370                           
  1371                           ;Lab6.c: 253: Set_NSLT(1);
  1372                           
  1373                           ;incstack = 0
  1374  00FC00  0E01               	movlw	1
  1375  00FC02  EC15  F07D         	call	_Set_NSLT
  1376                           
  1377                           ;Lab6.c: 254: Set_EW(1);
  1378  00FC06  0E01               	movlw	1
  1379  00FC08  ECC4  F07C         	call	_Set_EW
  1380                           
  1381                           ;Lab6.c: 255: Set_EWLT(1);
  1382  00FC0C  0E01               	movlw	1
  1383  00FC0E  ECDF  F07C         	call	_Set_EWLT
  1384                           
  1385                           ;Lab6.c: 256: Set_NS(2);
  1386  00FC12  0E02               	movlw	2
  1387  00FC14  ECFA  F07C         	call	_Set_NS
  1388                           
  1389                           ;Lab6.c: 257: Wait_N_Seconds(8);
  1390  00FC18  0E08               	movlw	8
  1391  00FC1A  EC64  F07C         	call	_Wait_N_Seconds
  1392                           
  1393                           ;Lab6.c: 258: Set_NS(3);
  1394  00FC1E  0E03               	movlw	3
  1395  00FC20  ECFA  F07C         	call	_Set_NS
  1396                           
  1397                           ;Lab6.c: 259: Wait_N_Seconds(3);
  1398  00FC24  0E03               	movlw	3
  1399  00FC26  EC64  F07C         	call	_Wait_N_Seconds
  1400                           
  1401                           ;Lab6.c: 260: Set_NS(1);
  1402  00FC2A  0E01               	movlw	1
  1403  00FC2C  ECFA  F07C         	call	_Set_NS
  1404                           
  1405                           ;Lab6.c: 261: if(PORTAbits.RA4){
  1406  00FC30  A880               	btfss	3968,4,c	;volatile
  1407  00FC32  D010               	goto	l1040
  1408                           
  1409                           ;Lab6.c: 262: Set_EWLT(2);
  1410  00FC34  0E02               	movlw	2
  1411  00FC36  ECDF  F07C         	call	_Set_EWLT
  1412                           
  1413                           ;Lab6.c: 263: Wait_N_Seconds(6);
  1414  00FC3A  0E06               	movlw	6
  1415  00FC3C  EC64  F07C         	call	_Wait_N_Seconds
  1416                           
  1417                           ;Lab6.c: 264: Set_EWLT(3);
  1418  00FC40  0E03               	movlw	3
  1419  00FC42  ECDF  F07C         	call	_Set_EWLT
  1420                           
  1421                           ;Lab6.c: 265: Wait_N_Seconds(3);
  1422  00FC46  0E03               	movlw	3
  1423  00FC48  EC64  F07C         	call	_Wait_N_Seconds
  1424                           
  1425                           ;Lab6.c: 266: Set_EWLT(1);
  1426  00FC4C  0E01               	movlw	1
  1427  00FC4E  ECDF  F07C         	call	_Set_EWLT
  1428                           
  1429                           ;Lab6.c: 267: }else{
  1430  00FC52  D010               	goto	l1042
  1431  00FC54                     l1040:
  1432                           
  1433                           ;Lab6.c: 268: Set_EW(2);
  1434  00FC54  0E02               	movlw	2
  1435  00FC56  ECC4  F07C         	call	_Set_EW
  1436                           
  1437                           ;Lab6.c: 269: Wait_N_Seconds(6);
  1438  00FC5A  0E06               	movlw	6
  1439  00FC5C  EC64  F07C         	call	_Wait_N_Seconds
  1440                           
  1441                           ;Lab6.c: 270: Set_EW(3);
  1442  00FC60  0E03               	movlw	3
  1443  00FC62  ECC4  F07C         	call	_Set_EW
  1444                           
  1445                           ;Lab6.c: 271: Wait_N_Seconds(3);
  1446  00FC66  0E03               	movlw	3
  1447  00FC68  EC64  F07C         	call	_Wait_N_Seconds
  1448                           
  1449                           ;Lab6.c: 272: Set_EW(1);
  1450  00FC6C  0E01               	movlw	1
  1451  00FC6E  ECC4  F07C         	call	_Set_EW
  1452  00FC72  D000               	goto	l1042
  1453  00FC74                     l1042:
  1454                           
  1455                           ;Lab6.c: 273: }
  1456                           ;Lab6.c: 274: if(PORTAbits.RA2){
  1457  00FC74  A480               	btfss	3968,2,c	;volatile
  1458  00FC76  D010               	goto	l1046
  1459                           
  1460                           ;Lab6.c: 275: Set_NSLT(2);
  1461  00FC78  0E02               	movlw	2
  1462  00FC7A  EC15  F07D         	call	_Set_NSLT
  1463                           
  1464                           ;Lab6.c: 276: Wait_N_Seconds(8);
  1465  00FC7E  0E08               	movlw	8
  1466  00FC80  EC64  F07C         	call	_Wait_N_Seconds
  1467                           
  1468                           ;Lab6.c: 277: Set_NSLT(3);
  1469  00FC84  0E03               	movlw	3
  1470  00FC86  EC15  F07D         	call	_Set_NSLT
  1471                           
  1472                           ;Lab6.c: 278: Wait_N_Seconds(3);
  1473  00FC8A  0E03               	movlw	3
  1474  00FC8C  EC64  F07C         	call	_Wait_N_Seconds
  1475                           
  1476                           ;Lab6.c: 279: Set_NSLT(1);
  1477  00FC90  0E01               	movlw	1
  1478  00FC92  EC15  F07D         	call	_Set_NSLT
  1479                           
  1480                           ;Lab6.c: 280: }else{
  1481  00FC96  D004               	goto	l184
  1482  00FC98                     l1046:
  1483                           
  1484                           ;Lab6.c: 281: Set_NSLT(1);
  1485  00FC98  0E01               	movlw	1
  1486  00FC9A  EC15  F07D         	call	_Set_NSLT
  1487  00FC9E  D000               	goto	l184
  1488  00FCA0                     l184:
  1489  00FCA0  0012               	return		;funcret
  1490  00FCA2                     __end_of_Night_Mode:
  1491                           	opt stack 0
  1492                           tblptru	equ	0xFF8
  1493                           tblptrh	equ	0xFF7
  1494                           tblptrl	equ	0xFF6
  1495                           tablat	equ	0xFF5
  1496                           prodl	equ	0xFF3
  1497                           postinc0	equ	0xFEE
  1498                           postdec1	equ	0xFE5
  1499                           fsr1l	equ	0xFE1
  1500                           status	equ	0xFD8
  1501                           
  1502 ;; *************** function _Init_Tris *****************
  1503 ;; Defined at:
  1504 ;;		line 118 in file "Lab6.c"
  1505 ;; Parameters:    Size  Location     Type
  1506 ;;		None
  1507 ;; Auto vars:     Size  Location     Type
  1508 ;;		None
  1509 ;; Return value:  Size  Location     Type
  1510 ;;		None               void
  1511 ;; Registers used:
  1512 ;;		wreg, status,2
  1513 ;; Tracked objects:
  1514 ;;		On entry : 0/0
  1515 ;;		On exit  : 0/0
  1516 ;;		Unchanged: 0/0
  1517 ;; Data sizes:     COMRAM   BANK0   BANK1   BANK2   BANK3   BANK4   BANK5   BANK6   BANK7   BANK8   BANK9  BANK10  BANK1
      +1  BANK12  BANK13  BANK14  BANK15
  1518 ;;      Params:         0       0       0       0       0       0       0       0       0       0       0       0       
      +0       0       0       0       0
  1519 ;;      Locals:         0       0       0       0       0       0       0       0       0       0       0       0       
      +0       0       0       0       0
  1520 ;;      Temps:          0       0       0       0       0       0       0       0       0       0       0       0       
      +0       0       0       0       0
  1521 ;;      Totals:         0       0       0       0       0       0       0       0       0       0       0       0       
      +0       0       0       0       0
  1522 ;;Total ram usage:        0 bytes
  1523 ;; Hardware stack levels used:    1
  1524 ;; This function calls:
  1525 ;;		Nothing
  1526 ;; This function is called by:
  1527 ;;		_main
  1528 ;; This function uses a non-reentrant model
  1529 ;;
  1530                           
  1531                           	psect	text10
  1532  00F898                     __ptext10:
  1533                           	opt stack 0
  1534  00F898                     _Init_Tris:
  1535                           	opt stack 30
  1536                           
  1537                           ;Lab6.c: 119: TRISA = 0x1F;
  1538                           
  1539                           ;incstack = 0
  1540  00F898  0E1F               	movlw	31
  1541  00F89A  6E92               	movwf	3986,c	;volatile
  1542                           
  1543                           ;Lab6.c: 120: TRISB = 0x00;
  1544  00F89C  0E00               	movlw	0
  1545  00F89E  6E93               	movwf	3987,c	;volatile
  1546                           
  1547                           ;Lab6.c: 121: TRISC = 0x00;
  1548  00F8A0  0E00               	movlw	0
  1549  00F8A2  6E94               	movwf	3988,c	;volatile
  1550                           
  1551                           ;Lab6.c: 122: TRISD = 0x00;
  1552  00F8A4  0E00               	movlw	0
  1553  00F8A6  6E95               	movwf	3989,c	;volatile
  1554                           
  1555                           ;Lab6.c: 123: TRISE = 0x00;
  1556  00F8A8  0E00               	movlw	0
  1557  00F8AA  6E96               	movwf	3990,c	;volatile
  1558  00F8AC  0012               	return		;funcret
  1559  00F8AE                     __end_of_Init_Tris:
  1560                           	opt stack 0
  1561                           tblptru	equ	0xFF8
  1562                           tblptrh	equ	0xFF7
  1563                           tblptrl	equ	0xFF6
  1564                           tablat	equ	0xFF5
  1565                           prodl	equ	0xFF3
  1566                           postinc0	equ	0xFEE
  1567                           postdec1	equ	0xFE5
  1568                           fsr1l	equ	0xFE1
  1569                           status	equ	0xFD8
  1570                           
  1571 ;; *************** function _Init_ADC *****************
  1572 ;; Defined at:
  1573 ;;		line 126 in file "Lab6.c"
  1574 ;; Parameters:    Size  Location     Type
  1575 ;;		None
  1576 ;; Auto vars:     Size  Location     Type
  1577 ;;		None
  1578 ;; Return value:  Size  Location     Type
  1579 ;;		None               void
  1580 ;; Registers used:
  1581 ;;		wreg, status,2
  1582 ;; Tracked objects:
  1583 ;;		On entry : 0/0
  1584 ;;		On exit  : 0/0
  1585 ;;		Unchanged: 0/0
  1586 ;; Data sizes:     COMRAM   BANK0   BANK1   BANK2   BANK3   BANK4   BANK5   BANK6   BANK7   BANK8   BANK9  BANK10  BANK1
      +1  BANK12  BANK13  BANK14  BANK15
  1587 ;;      Params:         0       0       0       0       0       0       0       0       0       0       0       0       
      +0       0       0       0       0
  1588 ;;      Locals:         0       0       0       0       0       0       0       0       0       0       0       0       
      +0       0       0       0       0
  1589 ;;      Temps:          0       0       0       0       0       0       0       0       0       0       0       0       
      +0       0       0       0       0
  1590 ;;      Totals:         0       0       0       0       0       0       0       0       0       0       0       0       
      +0       0       0       0       0
  1591 ;;Total ram usage:        0 bytes
  1592 ;; Hardware stack levels used:    1
  1593 ;; This function calls:
  1594 ;;		Nothing
  1595 ;; This function is called by:
  1596 ;;		_main
  1597 ;; This function uses a non-reentrant model
  1598 ;;
  1599                           
  1600                           	psect	text11
  1601  00F82E                     __ptext11:
  1602                           	opt stack 0
  1603  00F82E                     _Init_ADC:
  1604                           	opt stack 30
  1605                           
  1606                           ;Lab6.c: 127: ADCON1=0x0E;
  1607                           
  1608                           ;incstack = 0
  1609  00F82E  0E0E               	movlw	14
  1610  00F830  6EC1               	movwf	4033,c	;volatile
  1611                           
  1612                           ;Lab6.c: 128: ADCON2=0xA9;
  1613  00F832  0EA9               	movlw	169
  1614  00F834  6EC0               	movwf	4032,c	;volatile
  1615  00F836  0012               	return		;funcret
  1616  00F838                     __end_of_Init_ADC:
  1617                           	opt stack 0
  1618                           tblptru	equ	0xFF8
  1619                           tblptrh	equ	0xFF7
  1620                           tblptrl	equ	0xFF6
  1621                           tablat	equ	0xFF5
  1622                           prodl	equ	0xFF3
  1623                           postinc0	equ	0xFEE
  1624                           postdec1	equ	0xFE5
  1625                           fsr1l	equ	0xFE1
  1626                           status	equ	0xFD8
  1627                           
  1628 ;; *************** function _Day_Mode *****************
  1629 ;; Defined at:
  1630 ;;		line 284 in file "Lab6.c"
  1631 ;; Parameters:    Size  Location     Type
  1632 ;;		None
  1633 ;; Auto vars:     Size  Location     Type
  1634 ;;		None
  1635 ;; Return value:  Size  Location     Type
  1636 ;;		None               void
  1637 ;; Registers used:
  1638 ;;		wreg, fsr2l, fsr2h, status,2, status,0, prodl, prodh, cstack
  1639 ;; Tracked objects:
  1640 ;;		On entry : 0/0
  1641 ;;		On exit  : 0/0
  1642 ;;		Unchanged: 0/0
  1643 ;; Data sizes:     COMRAM   BANK0   BANK1   BANK2   BANK3   BANK4   BANK5   BANK6   BANK7   BANK8   BANK9  BANK10  BANK1
      +1  BANK12  BANK13  BANK14  BANK15
  1644 ;;      Params:         0       0       0       0       0       0       0       0       0       0       0       0       
      +0       0       0       0       0
  1645 ;;      Locals:         0       0       0       0       0       0       0       0       0       0       0       0       
      +0       0       0       0       0
  1646 ;;      Temps:          0       0       0       0       0       0       0       0       0       0       0       0       
      +0       0       0       0       0
  1647 ;;      Totals:         0       0       0       0       0       0       0       0       0       0       0       0       
      +0       0       0       0       0
  1648 ;;Total ram usage:        0 bytes
  1649 ;; Hardware stack levels used:    1
  1650 ;; Hardware stack levels required when called:    3
  1651 ;; This function calls:
  1652 ;;		_PED_Control
  1653 ;;		_Set_EW
  1654 ;;		_Set_EWLT
  1655 ;;		_Set_NS
  1656 ;;		_Set_NSLT
  1657 ;;		_Wait_N_Seconds
  1658 ;; This function is called by:
  1659 ;;		_main
  1660 ;; This function uses a non-reentrant model
  1661 ;;
  1662                           
  1663                           	psect	text12
  1664  00FCA2                     __ptext12:
  1665                           	opt stack 0
  1666  00FCA2                     _Day_Mode:
  1667                           	opt stack 27
  1668                           
  1669                           ;Lab6.c: 285: Set_NSLT(1);
  1670                           
  1671                           ;incstack = 0
  1672  00FCA2  0E01               	movlw	1
  1673  00FCA4  EC15  F07D         	call	_Set_NSLT
  1674                           
  1675                           ;Lab6.c: 286: Set_EW(1);
  1676  00FCA8  0E01               	movlw	1
  1677  00FCAA  ECC4  F07C         	call	_Set_EW
  1678                           
  1679                           ;Lab6.c: 287: Set_EWLT(1);
  1680  00FCAE  0E01               	movlw	1
  1681  00FCB0  ECDF  F07C         	call	_Set_EWLT
  1682                           
  1683                           ;Lab6.c: 288: Set_NS(2);
  1684  00FCB4  0E02               	movlw	2
  1685  00FCB6  ECFA  F07C         	call	_Set_NS
  1686                           
  1687                           ;Lab6.c: 290: if(PORTAbits.RA1){
  1688  00FCBA  A280               	btfss	3968,1,c	;volatile
  1689  00FCBC  D006               	goto	l1304
  1690                           
  1691                           ;Lab6.c: 291: PED_Control(0,8);
  1692  00FCBE  0E08               	movlw	8
  1693  00FCC0  6E03               	movwf	PED_Control@Num_Sec,c
  1694  00FCC2  0E00               	movlw	0
  1695  00FCC4  EC4E  F07D         	call	_PED_Control
  1696  00FCC8  D000               	goto	l1304
  1697  00FCCA                     l1304:
  1698                           
  1699                           ;Lab6.c: 292: }
  1700                           ;Lab6.c: 294: Wait_N_Seconds(7);
  1701  00FCCA  0E07               	movlw	7
  1702  00FCCC  EC64  F07C         	call	_Wait_N_Seconds
  1703                           
  1704                           ;Lab6.c: 295: Set_NS(3);
  1705  00FCD0  0E03               	movlw	3
  1706  00FCD2  ECFA  F07C         	call	_Set_NS
  1707                           
  1708                           ;Lab6.c: 296: Wait_N_Seconds(3);
  1709  00FCD6  0E03               	movlw	3
  1710  00FCD8  EC64  F07C         	call	_Wait_N_Seconds
  1711                           
  1712                           ;Lab6.c: 297: Set_NS(1);
  1713  00FCDC  0E01               	movlw	1
  1714  00FCDE  ECFA  F07C         	call	_Set_NS
  1715                           
  1716                           ;Lab6.c: 299: if(PORTAbits.RA4){
  1717  00FCE2  A880               	btfss	3968,4,c	;volatile
  1718  00FCE4  D00F               	goto	l188
  1719                           
  1720                           ;Lab6.c: 300: Set_EWLT(2);
  1721  00FCE6  0E02               	movlw	2
  1722  00FCE8  ECDF  F07C         	call	_Set_EWLT
  1723                           
  1724                           ;Lab6.c: 301: Wait_N_Seconds(8);
  1725  00FCEC  0E08               	movlw	8
  1726  00FCEE  EC64  F07C         	call	_Wait_N_Seconds
  1727                           
  1728                           ;Lab6.c: 302: Set_EWLT(3);
  1729  00FCF2  0E03               	movlw	3
  1730  00FCF4  ECDF  F07C         	call	_Set_EWLT
  1731                           
  1732                           ;Lab6.c: 303: Wait_N_Seconds(3);
  1733  00FCF8  0E03               	movlw	3
  1734  00FCFA  EC64  F07C         	call	_Wait_N_Seconds
  1735                           
  1736                           ;Lab6.c: 304: Set_EWLT(1);
  1737  00FCFE  0E01               	movlw	1
  1738  00FD00  ECDF  F07C         	call	_Set_EWLT
  1739  00FD04                     l188:
  1740                           
  1741                           ;Lab6.c: 305: }
  1742                           ;Lab6.c: 307: Set_EW(2);
  1743  00FD04  0E02               	movlw	2
  1744  00FD06  ECC4  F07C         	call	_Set_EW
  1745                           
  1746                           ;Lab6.c: 308: if(PORTAbits.RA3){
  1747  00FD0A  A680               	btfss	3968,3,c	;volatile
  1748  00FD0C  D006               	goto	l1320
  1749                           
  1750                           ;Lab6.c: 309: PED_Control(1,9);
  1751  00FD0E  0E09               	movlw	9
  1752  00FD10  6E03               	movwf	PED_Control@Num_Sec,c
  1753  00FD12  0E01               	movlw	1
  1754  00FD14  EC4E  F07D         	call	_PED_Control
  1755  00FD18  D000               	goto	l1320
  1756  00FD1A                     l1320:
  1757                           
  1758                           ;Lab6.c: 310: }
  1759                           ;Lab6.c: 313: Set_EW(2);
  1760  00FD1A  0E02               	movlw	2
  1761  00FD1C  ECC4  F07C         	call	_Set_EW
  1762                           
  1763                           ;Lab6.c: 314: Wait_N_Seconds(9);
  1764  00FD20  0E09               	movlw	9
  1765  00FD22  EC64  F07C         	call	_Wait_N_Seconds
  1766                           
  1767                           ;Lab6.c: 315: Set_EW(3);
  1768  00FD26  0E03               	movlw	3
  1769  00FD28  ECC4  F07C         	call	_Set_EW
  1770                           
  1771                           ;Lab6.c: 316: Wait_N_Seconds(3);
  1772  00FD2C  0E03               	movlw	3
  1773  00FD2E  EC64  F07C         	call	_Wait_N_Seconds
  1774                           
  1775                           ;Lab6.c: 317: Set_EW(1);
  1776  00FD32  0E01               	movlw	1
  1777  00FD34  ECC4  F07C         	call	_Set_EW
  1778                           
  1779                           ;Lab6.c: 319: if(PORTAbits.RA2){
  1780  00FD38  A480               	btfss	3968,2,c	;volatile
  1781  00FD3A  D00C               	goto	l190
  1782                           
  1783                           ;Lab6.c: 320: Set_NSLT(2);
  1784  00FD3C  0E02               	movlw	2
  1785  00FD3E  EC15  F07D         	call	_Set_NSLT
  1786                           
  1787                           ;Lab6.c: 321: Wait_N_Seconds(8);
  1788  00FD42  0E08               	movlw	8
  1789  00FD44  EC64  F07C         	call	_Wait_N_Seconds
  1790                           
  1791                           ;Lab6.c: 322: Set_NSLT(3);
  1792  00FD48  0E03               	movlw	3
  1793  00FD4A  EC15  F07D         	call	_Set_NSLT
  1794                           
  1795                           ;Lab6.c: 323: Wait_N_Seconds(3);
  1796  00FD4E  0E03               	movlw	3
  1797  00FD50  EC64  F07C         	call	_Wait_N_Seconds
  1798  00FD54                     l190:
  1799                           
  1800                           ;Lab6.c: 324: }
  1801                           ;Lab6.c: 325: Set_NSLT(1);
  1802  00FD54  0E01               	movlw	1
  1803  00FD56  EC15  F07D         	call	_Set_NSLT
  1804  00FD5A  0012               	return		;funcret
  1805  00FD5C                     __end_of_Day_Mode:
  1806                           	opt stack 0
  1807                           tblptru	equ	0xFF8
  1808                           tblptrh	equ	0xFF7
  1809                           tblptrl	equ	0xFF6
  1810                           tablat	equ	0xFF5
  1811                           prodl	equ	0xFF3
  1812                           postinc0	equ	0xFEE
  1813                           postdec1	equ	0xFE5
  1814                           fsr1l	equ	0xFE1
  1815                           status	equ	0xFD8
  1816                           
  1817 ;; *************** function _Wait_N_Seconds *****************
  1818 ;; Defined at:
  1819 ;;		line 173 in file "Lab6.c"
  1820 ;; Parameters:    Size  Location     Type
  1821 ;;  seconds         1    wreg     unsigned char 
  1822 ;; Auto vars:     Size  Location     Type
  1823 ;;  seconds         1    0[COMRAM] unsigned char 
  1824 ;;  I               1    1[COMRAM] unsigned char 
  1825 ;; Return value:  Size  Location     Type
  1826 ;;		None               void
  1827 ;; Registers used:
  1828 ;;		wreg, status,2, status,0, cstack
  1829 ;; Tracked objects:
  1830 ;;		On entry : 0/0
  1831 ;;		On exit  : 0/0
  1832 ;;		Unchanged: 0/0
  1833 ;; Data sizes:     COMRAM   BANK0   BANK1   BANK2   BANK3   BANK4   BANK5   BANK6   BANK7   BANK8   BANK9  BANK10  BANK1
      +1  BANK12  BANK13  BANK14  BANK15
  1834 ;;      Params:         0       0       0       0       0       0       0       0       0       0       0       0       
      +0       0       0       0       0
  1835 ;;      Locals:         2       0       0       0       0       0       0       0       0       0       0       0       
      +0       0       0       0       0
  1836 ;;      Temps:          0       0       0       0       0       0       0       0       0       0       0       0       
      +0       0       0       0       0
  1837 ;;      Totals:         2       0       0       0       0       0       0       0       0       0       0       0       
      +0       0       0       0       0
  1838 ;;Total ram usage:        2 bytes
  1839 ;; Hardware stack levels used:    1
  1840 ;; Hardware stack levels required when called:    2
  1841 ;; This function calls:
  1842 ;;		_Wait_One_Second
  1843 ;; This function is called by:
  1844 ;;		_Night_Mode
  1845 ;;		_Day_Mode
  1846 ;; This function uses a non-reentrant model
  1847 ;;
  1848                           
  1849                           	psect	text13
  1850  00F8C8                     __ptext13:
  1851                           	opt stack 0
  1852  00F8C8                     _Wait_N_Seconds:
  1853                           	opt stack 27
  1854                           
  1855                           ;incstack = 0
  1856                           ;Wait_N_Seconds@seconds stored from wreg
  1857  00F8C8  6E01               	movwf	Wait_N_Seconds@seconds,c
  1858                           
  1859                           ;Lab6.c: 174: char I;
  1860                           ;Lab6.c: 175: for (I = 0; I< seconds; I++) {
  1861  00F8CA  0E00               	movlw	0
  1862  00F8CC  6E02               	movwf	Wait_N_Seconds@I,c
  1863  00F8CE  D004               	goto	l892
  1864  00F8D0                     l888:
  1865                           
  1866                           ;Lab6.c: 176: Wait_One_Second();
  1867  00F8D0  EC27  F07C         	call	_Wait_One_Second	;wreg free
  1868  00F8D4  2A02               	incf	Wait_N_Seconds@I,f,c
  1869  00F8D6  D000               	goto	l892
  1870  00F8D8                     l892:
  1871  00F8D8  5001               	movf	Wait_N_Seconds@seconds,w,c
  1872  00F8DA  5C02               	subwf	Wait_N_Seconds@I,w,c
  1873  00F8DC  A0D8               	btfss	status,0,c
  1874  00F8DE  D7F8               	goto	l888
  1875  00F8E0  0012               	return		;funcret
  1876  00F8E2                     __end_of_Wait_N_Seconds:
  1877                           	opt stack 0
  1878                           tblptru	equ	0xFF8
  1879                           tblptrh	equ	0xFF7
  1880                           tblptrl	equ	0xFF6
  1881                           tablat	equ	0xFF5
  1882                           prodl	equ	0xFF3
  1883                           postinc0	equ	0xFEE
  1884                           postdec1	equ	0xFE5
  1885                           fsr1l	equ	0xFE1
  1886                           status	equ	0xFD8
  1887                           
  1888 ;; *************** function _Wait_One_Second *****************
  1889 ;; Defined at:
  1890 ;;		line 157 in file "Lab6.c"
  1891 ;; Parameters:    Size  Location     Type
  1892 ;;		None
  1893 ;; Auto vars:     Size  Location     Type
  1894 ;;		None
  1895 ;; Return value:  Size  Location     Type
  1896 ;;		None               void
  1897 ;; Registers used:
  1898 ;;		wreg, status,2, cstack
  1899 ;; Tracked objects:
  1900 ;;		On entry : 0/0
  1901 ;;		On exit  : 0/0
  1902 ;;		Unchanged: 0/0
  1903 ;; Data sizes:     COMRAM   BANK0   BANK1   BANK2   BANK3   BANK4   BANK5   BANK6   BANK7   BANK8   BANK9  BANK10  BANK1
      +1  BANK12  BANK13  BANK14  BANK15
  1904 ;;      Params:         0       0       0       0       0       0       0       0       0       0       0       0       
      +0       0       0       0       0
  1905 ;;      Locals:         0       0       0       0       0       0       0       0       0       0       0       0       
      +0       0       0       0       0
  1906 ;;      Temps:          0       0       0       0       0       0       0       0       0       0       0       0       
      +0       0       0       0       0
  1907 ;;      Totals:         0       0       0       0       0       0       0       0       0       0       0       0       
      +0       0       0       0       0
  1908 ;;Total ram usage:        0 bytes
  1909 ;; Hardware stack levels used:    1
  1910 ;; Hardware stack levels required when called:    1
  1911 ;; This function calls:
  1912 ;;		_Wait_Half_Second
  1913 ;; This function is called by:
  1914 ;;		_Wait_N_Seconds
  1915 ;; This function uses a non-reentrant model
  1916 ;;
  1917                           
  1918                           	psect	text14
  1919  00F84E                     __ptext14:
  1920                           	opt stack 0
  1921  00F84E                     _Wait_One_Second:
  1922                           	opt stack 27
  1923                           
  1924                           ;Lab6.c: 158: PORTDbits.RD7 = 0;
  1925                           
  1926                           ;incstack = 0
  1927  00F84E  9E83               	bcf	3971,7,c	;volatile
  1928                           
  1929                           ;Lab6.c: 159: Wait_Half_Second();
  1930  00F850  EC57  F07C         	call	_Wait_Half_Second	;wreg free
  1931                           
  1932                           ;Lab6.c: 160: PORTDbits.RD7 = 1;
  1933  00F854  8E83               	bsf	3971,7,c	;volatile
  1934                           
  1935                           ;Lab6.c: 161: Wait_Half_Second();
  1936  00F856  EC57  F07C         	call	_Wait_Half_Second	;wreg free
  1937  00F85A  0012               	return		;funcret
  1938  00F85C                     __end_of_Wait_One_Second:
  1939                           	opt stack 0
  1940                           tblptru	equ	0xFF8
  1941                           tblptrh	equ	0xFF7
  1942                           tblptrl	equ	0xFF6
  1943                           tablat	equ	0xFF5
  1944                           prodl	equ	0xFF3
  1945                           postinc0	equ	0xFEE
  1946                           postdec1	equ	0xFE5
  1947                           fsr1l	equ	0xFE1
  1948                           status	equ	0xFD8
  1949                           
  1950 ;; *************** function _Set_NSLT *****************
  1951 ;; Defined at:
  1952 ;;		line 188 in file "Lab6.c"
  1953 ;; Parameters:    Size  Location     Type
  1954 ;;  color           1    wreg     unsigned char 
  1955 ;; Auto vars:     Size  Location     Type
  1956 ;;  color           1    0[COMRAM] unsigned char 
  1957 ;; Return value:  Size  Location     Type
  1958 ;;		None               void
  1959 ;; Registers used:
  1960 ;;		wreg, status,2, status,0
  1961 ;; Tracked objects:
  1962 ;;		On entry : 0/0
  1963 ;;		On exit  : 0/0
  1964 ;;		Unchanged: 0/0
  1965 ;; Data sizes:     COMRAM   BANK0   BANK1   BANK2   BANK3   BANK4   BANK5   BANK6   BANK7   BANK8   BANK9  BANK10  BANK1
      +1  BANK12  BANK13  BANK14  BANK15
  1966 ;;      Params:         0       0       0       0       0       0       0       0       0       0       0       0       
      +0       0       0       0       0
  1967 ;;      Locals:         1       0       0       0       0       0       0       0       0       0       0       0       
      +0       0       0       0       0
  1968 ;;      Temps:          0       0       0       0       0       0       0       0       0       0       0       0       
      +0       0       0       0       0
  1969 ;;      Totals:         1       0       0       0       0       0       0       0       0       0       0       0       
      +0       0       0       0       0
  1970 ;;Total ram usage:        1 bytes
  1971 ;; Hardware stack levels used:    1
  1972 ;; This function calls:
  1973 ;;		Nothing
  1974 ;; This function is called by:
  1975 ;;		_Night_Mode
  1976 ;;		_Day_Mode
  1977 ;; This function uses a non-reentrant model
  1978 ;;
  1979                           
  1980                           	psect	text15
  1981  00FA2A                     __ptext15:
  1982                           	opt stack 0
  1983  00FA2A                     _Set_NSLT:
  1984                           	opt stack 29
  1985                           
  1986                           ;incstack = 0
  1987                           ;Set_NSLT@color stored from wreg
  1988  00FA2A  6E01               	movwf	Set_NSLT@color,c
  1989                           
  1990                           ;Lab6.c: 189: switch(color){
  1991  00FA2C  D00A               	goto	l904
  1992  00FA2E                     l136:
  1993  00FA2E  9281               	bcf	3969,1,c	;volatile
  1994  00FA30  D001               	goto	L1
  1995  00FA32                     l138:
  1996  00FA32  8281               	bsf	3969,1,c	;volatile
  1997  00FA34                     L1:
  1998  00FA34  9481               	bcf	3969,2,c	;volatile
  1999  00FA36  D013               	goto	l141
  2000  00FA38                     l139:
  2001  00FA38  9281               	bcf	3969,1,c	;volatile
  2002  00FA3A  D001               	goto	L2
  2003  00FA3C                     l140:
  2004  00FA3C  8281               	bsf	3969,1,c	;volatile
  2005  00FA3E                     L2:
  2006  00FA3E  8481               	bsf	3969,2,c	;volatile
  2007                           
  2008                           ;Lab6.c: 194: }
  2009  00FA40  D00E               	goto	l141
  2010  00FA42                     l904:
  2011  00FA42  5001               	movf	Set_NSLT@color,w,c
  2012                           
  2013                           ; Switch size 1, requested type "space"
  2014                           ; Number of cases is 4, Range of values is 0 to 3
  2015                           ; switch strategies available:
  2016                           ; Name         Instructions Cycles
  2017                           ; simple_byte           13     7 (average)
  2018                           ;	Chosen strategy is simple_byte
  2019  00FA44  0A00               	xorlw	0	; case 0
  2020  00FA46  B4D8               	btfsc	status,2,c
  2021  00FA48  D7F2               	goto	l136
  2022  00FA4A  0A01               	xorlw	1	; case 1
  2023  00FA4C  B4D8               	btfsc	status,2,c
  2024  00FA4E  D7F1               	goto	l138
  2025  00FA50  0A03               	xorlw	3	; case 2
  2026  00FA52  B4D8               	btfsc	status,2,c
  2027  00FA54  D7F1               	goto	l139
  2028  00FA56  0A01               	xorlw	1	; case 3
  2029  00FA58  B4D8               	btfsc	status,2,c
  2030  00FA5A  D7F0               	goto	l140
  2031  00FA5C  D000               	goto	l141
  2032  00FA5E                     l141:
  2033  00FA5E  0012               	return		;funcret
  2034  00FA60                     __end_of_Set_NSLT:
  2035                           	opt stack 0
  2036                           tblptru	equ	0xFF8
  2037                           tblptrh	equ	0xFF7
  2038                           tblptrl	equ	0xFF6
  2039                           tablat	equ	0xFF5
  2040                           prodl	equ	0xFF3
  2041                           postinc0	equ	0xFEE
  2042                           postdec1	equ	0xFE5
  2043                           fsr1l	equ	0xFE1
  2044                           status	equ	0xFD8
  2045                           
  2046 ;; *************** function _Set_NS *****************
  2047 ;; Defined at:
  2048 ;;		line 180 in file "Lab6.c"
  2049 ;; Parameters:    Size  Location     Type
  2050 ;;  color           1    wreg     unsigned char 
  2051 ;; Auto vars:     Size  Location     Type
  2052 ;;  color           1    0[COMRAM] unsigned char 
  2053 ;; Return value:  Size  Location     Type
  2054 ;;		None               void
  2055 ;; Registers used:
  2056 ;;		wreg, status,2, status,0
  2057 ;; Tracked objects:
  2058 ;;		On entry : 0/0
  2059 ;;		On exit  : 0/0
  2060 ;;		Unchanged: 0/0
  2061 ;; Data sizes:     COMRAM   BANK0   BANK1   BANK2   BANK3   BANK4   BANK5   BANK6   BANK7   BANK8   BANK9  BANK10  BANK1
      +1  BANK12  BANK13  BANK14  BANK15
  2062 ;;      Params:         0       0       0       0       0       0       0       0       0       0       0       0       
      +0       0       0       0       0
  2063 ;;      Locals:         1       0       0       0       0       0       0       0       0       0       0       0       
      +0       0       0       0       0
  2064 ;;      Temps:          0       0       0       0       0       0       0       0       0       0       0       0       
      +0       0       0       0       0
  2065 ;;      Totals:         1       0       0       0       0       0       0       0       0       0       0       0       
      +0       0       0       0       0
  2066 ;;Total ram usage:        1 bytes
  2067 ;; Hardware stack levels used:    1
  2068 ;; This function calls:
  2069 ;;		Nothing
  2070 ;; This function is called by:
  2071 ;;		_Night_Mode
  2072 ;;		_Day_Mode
  2073 ;; This function uses a non-reentrant model
  2074 ;;
  2075                           
  2076                           	psect	text16
  2077  00F9F4                     __ptext16:
  2078                           	opt stack 0
  2079  00F9F4                     _Set_NS:
  2080                           	opt stack 29
  2081                           
  2082                           ;incstack = 0
  2083                           ;Set_NS@color stored from wreg
  2084  00F9F4  6E01               	movwf	Set_NS@color,c
  2085                           
  2086                           ;Lab6.c: 181: switch(color){
  2087  00F9F6  D00A               	goto	l898
  2088  00F9F8                     l127:
  2089  00F9F8  9A80               	bcf	3968,5,c	;volatile
  2090  00F9FA  D001               	goto	L3
  2091  00F9FC                     l129:
  2092  00F9FC  8A80               	bsf	3968,5,c	;volatile
  2093  00F9FE                     L3:
  2094  00F9FE  9081               	bcf	3969,0,c	;volatile
  2095  00FA00  D013               	goto	l132
  2096  00FA02                     l130:
  2097  00FA02  9A80               	bcf	3968,5,c	;volatile
  2098  00FA04  D001               	goto	L4
  2099  00FA06                     l131:
  2100  00FA06  8A80               	bsf	3968,5,c	;volatile
  2101  00FA08                     L4:
  2102  00FA08  8081               	bsf	3969,0,c	;volatile
  2103                           
  2104                           ;Lab6.c: 186: }
  2105  00FA0A  D00E               	goto	l132
  2106  00FA0C                     l898:
  2107  00FA0C  5001               	movf	Set_NS@color,w,c
  2108                           
  2109                           ; Switch size 1, requested type "space"
  2110                           ; Number of cases is 4, Range of values is 0 to 3
  2111                           ; switch strategies available:
  2112                           ; Name         Instructions Cycles
  2113                           ; simple_byte           13     7 (average)
  2114                           ;	Chosen strategy is simple_byte
  2115  00FA0E  0A00               	xorlw	0	; case 0
  2116  00FA10  B4D8               	btfsc	status,2,c
  2117  00FA12  D7F2               	goto	l127
  2118  00FA14  0A01               	xorlw	1	; case 1
  2119  00FA16  B4D8               	btfsc	status,2,c
  2120  00FA18  D7F1               	goto	l129
  2121  00FA1A  0A03               	xorlw	3	; case 2
  2122  00FA1C  B4D8               	btfsc	status,2,c
  2123  00FA1E  D7F1               	goto	l130
  2124  00FA20  0A01               	xorlw	1	; case 3
  2125  00FA22  B4D8               	btfsc	status,2,c
  2126  00FA24  D7F0               	goto	l131
  2127  00FA26  D000               	goto	l132
  2128  00FA28                     l132:
  2129  00FA28  0012               	return		;funcret
  2130  00FA2A                     __end_of_Set_NS:
  2131                           	opt stack 0
  2132                           tblptru	equ	0xFF8
  2133                           tblptrh	equ	0xFF7
  2134                           tblptrl	equ	0xFF6
  2135                           tablat	equ	0xFF5
  2136                           prodl	equ	0xFF3
  2137                           postinc0	equ	0xFEE
  2138                           postdec1	equ	0xFE5
  2139                           fsr1l	equ	0xFE1
  2140                           status	equ	0xFD8
  2141                           
  2142 ;; *************** function _Set_EWLT *****************
  2143 ;; Defined at:
  2144 ;;		line 204 in file "Lab6.c"
  2145 ;; Parameters:    Size  Location     Type
  2146 ;;  color           1    wreg     unsigned char 
  2147 ;; Auto vars:     Size  Location     Type
  2148 ;;  color           1    0[COMRAM] unsigned char 
  2149 ;; Return value:  Size  Location     Type
  2150 ;;		None               void
  2151 ;; Registers used:
  2152 ;;		wreg, status,2, status,0
  2153 ;; Tracked objects:
  2154 ;;		On entry : 0/0
  2155 ;;		On exit  : 0/0
  2156 ;;		Unchanged: 0/0
  2157 ;; Data sizes:     COMRAM   BANK0   BANK1   BANK2   BANK3   BANK4   BANK5   BANK6   BANK7   BANK8   BANK9  BANK10  BANK1
      +1  BANK12  BANK13  BANK14  BANK15
  2158 ;;      Params:         0       0       0       0       0       0       0       0       0       0       0       0       
      +0       0       0       0       0
  2159 ;;      Locals:         1       0       0       0       0       0       0       0       0       0       0       0       
      +0       0       0       0       0
  2160 ;;      Temps:          0       0       0       0       0       0       0       0       0       0       0       0       
      +0       0       0       0       0
  2161 ;;      Totals:         1       0       0       0       0       0       0       0       0       0       0       0       
      +0       0       0       0       0
  2162 ;;Total ram usage:        1 bytes
  2163 ;; Hardware stack levels used:    1
  2164 ;; This function calls:
  2165 ;;		Nothing
  2166 ;; This function is called by:
  2167 ;;		_Night_Mode
  2168 ;;		_Day_Mode
  2169 ;; This function uses a non-reentrant model
  2170 ;;
  2171                           
  2172                           	psect	text17
  2173  00F9BE                     __ptext17:
  2174                           	opt stack 0
  2175  00F9BE                     _Set_EWLT:
  2176                           	opt stack 29
  2177                           
  2178                           ;incstack = 0
  2179                           ;Set_EWLT@color stored from wreg
  2180  00F9BE  6E01               	movwf	Set_EWLT@color,c
  2181                           
  2182                           ;Lab6.c: 205: switch(color){
  2183  00F9C0  D00A               	goto	l916
  2184  00F9C2                     l154:
  2185  00F9C2  9084               	bcf	3972,0,c	;volatile
  2186  00F9C4  D001               	goto	L5
  2187  00F9C6                     l156:
  2188  00F9C6  8084               	bsf	3972,0,c	;volatile
  2189  00F9C8                     L5:
  2190  00F9C8  9484               	bcf	3972,2,c	;volatile
  2191  00F9CA  D013               	goto	l159
  2192  00F9CC                     l157:
  2193  00F9CC  9084               	bcf	3972,0,c	;volatile
  2194  00F9CE  D001               	goto	L6
  2195  00F9D0                     l158:
  2196  00F9D0  8084               	bsf	3972,0,c	;volatile
  2197  00F9D2                     L6:
  2198  00F9D2  8484               	bsf	3972,2,c	;volatile
  2199                           
  2200                           ;Lab6.c: 210: }
  2201  00F9D4  D00E               	goto	l159
  2202  00F9D6                     l916:
  2203  00F9D6  5001               	movf	Set_EWLT@color,w,c
  2204                           
  2205                           ; Switch size 1, requested type "space"
  2206                           ; Number of cases is 4, Range of values is 0 to 3
  2207                           ; switch strategies available:
  2208                           ; Name         Instructions Cycles
  2209                           ; simple_byte           13     7 (average)
  2210                           ;	Chosen strategy is simple_byte
  2211  00F9D8  0A00               	xorlw	0	; case 0
  2212  00F9DA  B4D8               	btfsc	status,2,c
  2213  00F9DC  D7F2               	goto	l154
  2214  00F9DE  0A01               	xorlw	1	; case 1
  2215  00F9E0  B4D8               	btfsc	status,2,c
  2216  00F9E2  D7F1               	goto	l156
  2217  00F9E4  0A03               	xorlw	3	; case 2
  2218  00F9E6  B4D8               	btfsc	status,2,c
  2219  00F9E8  D7F1               	goto	l157
  2220  00F9EA  0A01               	xorlw	1	; case 3
  2221  00F9EC  B4D8               	btfsc	status,2,c
  2222  00F9EE  D7F0               	goto	l158
  2223  00F9F0  D000               	goto	l159
  2224  00F9F2                     l159:
  2225  00F9F2  0012               	return		;funcret
  2226  00F9F4                     __end_of_Set_EWLT:
  2227                           	opt stack 0
  2228                           tblptru	equ	0xFF8
  2229                           tblptrh	equ	0xFF7
  2230                           tblptrl	equ	0xFF6
  2231                           tablat	equ	0xFF5
  2232                           prodl	equ	0xFF3
  2233                           postinc0	equ	0xFEE
  2234                           postdec1	equ	0xFE5
  2235                           fsr1l	equ	0xFE1
  2236                           status	equ	0xFD8
  2237                           
  2238 ;; *************** function _Set_EW *****************
  2239 ;; Defined at:
  2240 ;;		line 196 in file "Lab6.c"
  2241 ;; Parameters:    Size  Location     Type
  2242 ;;  color           1    wreg     unsigned char 
  2243 ;; Auto vars:     Size  Location     Type
  2244 ;;  color           1    0[COMRAM] unsigned char 
  2245 ;; Return value:  Size  Location     Type
  2246 ;;		None               void
  2247 ;; Registers used:
  2248 ;;		wreg, status,2, status,0
  2249 ;; Tracked objects:
  2250 ;;		On entry : 0/0
  2251 ;;		On exit  : 0/0
  2252 ;;		Unchanged: 0/0
  2253 ;; Data sizes:     COMRAM   BANK0   BANK1   BANK2   BANK3   BANK4   BANK5   BANK6   BANK7   BANK8   BANK9  BANK10  BANK1
      +1  BANK12  BANK13  BANK14  BANK15
  2254 ;;      Params:         0       0       0       0       0       0       0       0       0       0       0       0       
      +0       0       0       0       0
  2255 ;;      Locals:         1       0       0       0       0       0       0       0       0       0       0       0       
      +0       0       0       0       0
  2256 ;;      Temps:          0       0       0       0       0       0       0       0       0       0       0       0       
      +0       0       0       0       0
  2257 ;;      Totals:         1       0       0       0       0       0       0       0       0       0       0       0       
      +0       0       0       0       0
  2258 ;;Total ram usage:        1 bytes
  2259 ;; Hardware stack levels used:    1
  2260 ;; This function calls:
  2261 ;;		Nothing
  2262 ;; This function is called by:
  2263 ;;		_Night_Mode
  2264 ;;		_Day_Mode
  2265 ;; This function uses a non-reentrant model
  2266 ;;
  2267                           
  2268                           	psect	text18
  2269  00F988                     __ptext18:
  2270                           	opt stack 0
  2271  00F988                     _Set_EW:
  2272                           	opt stack 29
  2273                           
  2274                           ;incstack = 0
  2275                           ;Set_EW@color stored from wreg
  2276  00F988  6E01               	movwf	Set_EW@color,c
  2277                           
  2278                           ;Lab6.c: 197: switch(color){
  2279  00F98A  D00A               	goto	l910
  2280  00F98C                     l145:
  2281  00F98C  9881               	bcf	3969,4,c	;volatile
  2282  00F98E  D001               	goto	L7
  2283  00F990                     l147:
  2284  00F990  8881               	bsf	3969,4,c	;volatile
  2285  00F992                     L7:
  2286  00F992  9A81               	bcf	3969,5,c	;volatile
  2287  00F994  D013               	goto	l150
  2288  00F996                     l148:
  2289  00F996  9881               	bcf	3969,4,c	;volatile
  2290  00F998  D001               	goto	L8
  2291  00F99A                     l149:
  2292  00F99A  8881               	bsf	3969,4,c	;volatile
  2293  00F99C                     L8:
  2294  00F99C  8A81               	bsf	3969,5,c	;volatile
  2295                           
  2296                           ;Lab6.c: 202: }
  2297  00F99E  D00E               	goto	l150
  2298  00F9A0                     l910:
  2299  00F9A0  5001               	movf	Set_EW@color,w,c
  2300                           
  2301                           ; Switch size 1, requested type "space"
  2302                           ; Number of cases is 4, Range of values is 0 to 3
  2303                           ; switch strategies available:
  2304                           ; Name         Instructions Cycles
  2305                           ; simple_byte           13     7 (average)
  2306                           ;	Chosen strategy is simple_byte
  2307  00F9A2  0A00               	xorlw	0	; case 0
  2308  00F9A4  B4D8               	btfsc	status,2,c
  2309  00F9A6  D7F2               	goto	l145
  2310  00F9A8  0A01               	xorlw	1	; case 1
  2311  00F9AA  B4D8               	btfsc	status,2,c
  2312  00F9AC  D7F1               	goto	l147
  2313  00F9AE  0A03               	xorlw	3	; case 2
  2314  00F9B0  B4D8               	btfsc	status,2,c
  2315  00F9B2  D7F1               	goto	l148
  2316  00F9B4  0A01               	xorlw	1	; case 3
  2317  00F9B6  B4D8               	btfsc	status,2,c
  2318  00F9B8  D7F0               	goto	l149
  2319  00F9BA  D000               	goto	l150
  2320  00F9BC                     l150:
  2321  00F9BC  0012               	return		;funcret
  2322  00F9BE                     __end_of_Set_EW:
  2323                           	opt stack 0
  2324                           tblptru	equ	0xFF8
  2325                           tblptrh	equ	0xFF7
  2326                           tblptrl	equ	0xFF6
  2327                           tablat	equ	0xFF5
  2328                           prodl	equ	0xFF3
  2329                           postinc0	equ	0xFEE
  2330                           postdec1	equ	0xFE5
  2331                           fsr1l	equ	0xFE1
  2332                           status	equ	0xFD8
  2333                           
  2334 ;; *************** function _PED_Control *****************
  2335 ;; Defined at:
  2336 ;;		line 230 in file "Lab6.c"
  2337 ;; Parameters:    Size  Location     Type
  2338 ;;  Direction       1    wreg     unsigned char 
  2339 ;;  Num_Sec         1    2[COMRAM] unsigned char 
  2340 ;; Auto vars:     Size  Location     Type
  2341 ;;  Direction       1    3[COMRAM] unsigned char 
  2342 ;;  i               1    4[COMRAM] unsigned char 
  2343 ;; Return value:  Size  Location     Type
  2344 ;;		None               void
  2345 ;; Registers used:
  2346 ;;		wreg, fsr2l, fsr2h, status,2, status,0, prodl, prodh, cstack
  2347 ;; Tracked objects:
  2348 ;;		On entry : 0/0
  2349 ;;		On exit  : 0/0
  2350 ;;		Unchanged: 0/0
  2351 ;; Data sizes:     COMRAM   BANK0   BANK1   BANK2   BANK3   BANK4   BANK5   BANK6   BANK7   BANK8   BANK9  BANK10  BANK1
      +1  BANK12  BANK13  BANK14  BANK15
  2352 ;;      Params:         1       0       0       0       0       0       0       0       0       0       0       0       
      +0       0       0       0       0
  2353 ;;      Locals:         2       0       0       0       0       0       0       0       0       0       0       0       
      +0       0       0       0       0
  2354 ;;      Temps:          0       0       0       0       0       0       0       0       0       0       0       0       
      +0       0       0       0       0
  2355 ;;      Totals:         3       0       0       0       0       0       0       0       0       0       0       0       
      +0       0       0       0       0
  2356 ;;Total ram usage:        3 bytes
  2357 ;; Hardware stack levels used:    1
  2358 ;; Hardware stack levels required when called:    2
  2359 ;; This function calls:
  2360 ;;		_Display_Lower_Digit
  2361 ;;		_Display_Upper_Digit
  2362 ;;		_Wait_One_Second_With_Beep
  2363 ;; This function is called by:
  2364 ;;		_Day_Mode
  2365 ;; This function uses a non-reentrant model
  2366 ;;
  2367                           
  2368                           	psect	text19
  2369  00FA9C                     __ptext19:
  2370                           	opt stack 0
  2371  00FA9C                     _PED_Control:
  2372                           	opt stack 27
  2373                           
  2374                           ;incstack = 0
  2375                           ;PED_Control@Direction stored from wreg
  2376  00FA9C  6E04               	movwf	PED_Control@Direction,c
  2377                           
  2378                           ;Lab6.c: 232: Display_Lower_Digit(0x00);
  2379  00FA9E  0E00               	movlw	0
  2380  00FAA0  EC71  F07C         	call	_Display_Lower_Digit
  2381                           
  2382                           ;Lab6.c: 233: Display_Upper_Digit(0x00);
  2383  00FAA4  0E00               	movlw	0
  2384  00FAA6  ECA9  F07C         	call	_Display_Upper_Digit
  2385                           
  2386                           ;Lab6.c: 235: for(char i = Num_Sec - 1; i >0; i--){
  2387  00FAAA  0403               	decf	PED_Control@Num_Sec,w,c
  2388  00FAAC  6E05               	movwf	PED_Control@i,c
  2389  00FAAE                     l1228:
  2390  00FAAE  5005               	movf	PED_Control@i,w,c
  2391  00FAB0  B4D8               	btfsc	status,2,c
  2392  00FAB2  D017               	goto	l1246
  2393  00FAB4  D00A               	goto	l1238
  2394  00FAB6  D015               	goto	l1246
  2395                           
  2396                           ;Lab6.c: 236: switch(Direction){
  2397  00FAB8  D008               	goto	l1238
  2398  00FABA                     l1232:
  2399                           
  2400                           ;Lab6.c: 238: Display_Upper_Digit(i);
  2401  00FABA  5005               	movf	PED_Control@i,w,c
  2402  00FABC  ECA9  F07C         	call	_Display_Upper_Digit
  2403                           
  2404                           ;Lab6.c: 239: break;
  2405  00FAC0  D00C               	goto	l1240
  2406  00FAC2                     l1234:
  2407                           
  2408                           ;Lab6.c: 241: Display_Lower_Digit(i);
  2409  00FAC2  5005               	movf	PED_Control@i,w,c
  2410  00FAC4  EC71  F07C         	call	_Display_Lower_Digit
  2411                           
  2412                           ;Lab6.c: 243: }
  2413                           
  2414                           ;Lab6.c: 242: break;
  2415  00FAC8  D008               	goto	l1240
  2416  00FACA                     l1238:
  2417  00FACA  5004               	movf	PED_Control@Direction,w,c
  2418                           
  2419                           ; Switch size 1, requested type "space"
  2420                           ; Number of cases is 2, Range of values is 0 to 1
  2421                           ; switch strategies available:
  2422                           ; Name         Instructions Cycles
  2423                           ; simple_byte            7     4 (average)
  2424                           ;	Chosen strategy is simple_byte
  2425  00FACC  0A00               	xorlw	0	; case 0
  2426  00FACE  B4D8               	btfsc	status,2,c
  2427  00FAD0  D7F4               	goto	l1232
  2428  00FAD2  0A01               	xorlw	1	; case 1
  2429  00FAD4  B4D8               	btfsc	status,2,c
  2430  00FAD6  D7F5               	goto	l1234
  2431  00FAD8  D000               	goto	l1240
  2432  00FADA                     l1240:
  2433                           
  2434                           ;Lab6.c: 244: Wait_One_Second_With_Beep();
  2435  00FADA  EC41  F07C         	call	_Wait_One_Second_With_Beep	;wreg free
  2436  00FADE  0605               	decf	PED_Control@i,f,c
  2437  00FAE0  D7E6               	goto	l1228
  2438  00FAE2                     l1246:
  2439                           
  2440                           ;Lab6.c: 245: }
  2441                           ;Lab6.c: 246: Display_Lower_Digit(0x00);
  2442  00FAE2  0E00               	movlw	0
  2443  00FAE4  EC71  F07C         	call	_Display_Lower_Digit
  2444                           
  2445                           ;Lab6.c: 247: Display_Upper_Digit(0x00);
  2446  00FAE8  0E00               	movlw	0
  2447  00FAEA  ECA9  F07C         	call	_Display_Upper_Digit
  2448                           
  2449                           ;Lab6.c: 249: Wait_One_Second_With_Beep();
  2450  00FAEE  EC41  F07C         	call	_Wait_One_Second_With_Beep	;wreg free
  2451  00FAF2  0012               	return		;funcret
  2452  00FAF4                     __end_of_PED_Control:
  2453                           	opt stack 0
  2454                           tblptru	equ	0xFF8
  2455                           tblptrh	equ	0xFF7
  2456                           tblptrl	equ	0xFF6
  2457                           tablat	equ	0xFF5
  2458                           prodl	equ	0xFF3
  2459                           postinc0	equ	0xFEE
  2460                           postdec1	equ	0xFE5
  2461                           fsr1l	equ	0xFE1
  2462                           status	equ	0xFD8
  2463                           
  2464 ;; *************** function _Wait_One_Second_With_Beep *****************
  2465 ;; Defined at:
  2466 ;;		line 222 in file "Lab6.c"
  2467 ;; Parameters:    Size  Location     Type
  2468 ;;		None
  2469 ;; Auto vars:     Size  Location     Type
  2470 ;;		None
  2471 ;; Return value:  Size  Location     Type
  2472 ;;		None               void
  2473 ;; Registers used:
  2474 ;;		wreg, status,2, cstack
  2475 ;; Tracked objects:
  2476 ;;		On entry : 0/0
  2477 ;;		On exit  : 0/0
  2478 ;;		Unchanged: 0/0
  2479 ;; Data sizes:     COMRAM   BANK0   BANK1   BANK2   BANK3   BANK4   BANK5   BANK6   BANK7   BANK8   BANK9  BANK10  BANK1
      +1  BANK12  BANK13  BANK14  BANK15
  2480 ;;      Params:         0       0       0       0       0       0       0       0       0       0       0       0       
      +0       0       0       0       0
  2481 ;;      Locals:         0       0       0       0       0       0       0       0       0       0       0       0       
      +0       0       0       0       0
  2482 ;;      Temps:          0       0       0       0       0       0       0       0       0       0       0       0       
      +0       0       0       0       0
  2483 ;;      Totals:         0       0       0       0       0       0       0       0       0       0       0       0       
      +0       0       0       0       0
  2484 ;;Total ram usage:        0 bytes
  2485 ;; Hardware stack levels used:    1
  2486 ;; Hardware stack levels required when called:    1
  2487 ;; This function calls:
  2488 ;;		_Activate_Buzzer
  2489 ;;		_Deactivate_Buzzer
  2490 ;;		_Wait_Half_Second
  2491 ;; This function is called by:
  2492 ;;		_PED_Control
  2493 ;; This function uses a non-reentrant model
  2494 ;;
  2495                           
  2496                           	psect	text20
  2497  00F882                     __ptext20:
  2498                           	opt stack 0
  2499  00F882                     _Wait_One_Second_With_Beep:
  2500                           	opt stack 27
  2501                           
  2502                           ;Lab6.c: 223: PORTDbits.RD7 = 1;
  2503                           
  2504                           ;incstack = 0
  2505  00F882  8E83               	bsf	3971,7,c	;volatile
  2506                           
  2507                           ;Lab6.c: 224: Activate_Buzzer();
  2508  00F884  EC2E  F07C         	call	_Activate_Buzzer	;wreg free
  2509                           
  2510                           ;Lab6.c: 225: Wait_Half_Second();
  2511  00F888  EC57  F07C         	call	_Wait_Half_Second	;wreg free
  2512                           
  2513                           ;Lab6.c: 226: PORTDbits.RD7 = 0;
  2514  00F88C  9E83               	bcf	3971,7,c	;volatile
  2515                           
  2516                           ;Lab6.c: 227: Deactivate_Buzzer();
  2517  00F88E  EC13  F07C         	call	_Deactivate_Buzzer	;wreg free
  2518                           
  2519                           ;Lab6.c: 228: Wait_Half_Second();
  2520  00F892  EC57  F07C         	call	_Wait_Half_Second	;wreg free
  2521  00F896  0012               	return		;funcret
  2522  00F898                     __end_of_Wait_One_Second_With_Beep:
  2523                           	opt stack 0
  2524                           tblptru	equ	0xFF8
  2525                           tblptrh	equ	0xFF7
  2526                           tblptrl	equ	0xFF6
  2527                           tablat	equ	0xFF5
  2528                           prodl	equ	0xFF3
  2529                           postinc0	equ	0xFEE
  2530                           postdec1	equ	0xFE5
  2531                           fsr1l	equ	0xFE1
  2532                           status	equ	0xFD8
  2533                           
  2534 ;; *************** function _Wait_Half_Second *****************
  2535 ;; Defined at:
  2536 ;;		line 163 in file "Lab6.c"
  2537 ;; Parameters:    Size  Location     Type
  2538 ;;		None
  2539 ;; Auto vars:     Size  Location     Type
  2540 ;;		None
  2541 ;; Return value:  Size  Location     Type
  2542 ;;		None               void
  2543 ;; Registers used:
  2544 ;;		wreg, status,2
  2545 ;; Tracked objects:
  2546 ;;		On entry : 0/0
  2547 ;;		On exit  : 0/0
  2548 ;;		Unchanged: 0/0
  2549 ;; Data sizes:     COMRAM   BANK0   BANK1   BANK2   BANK3   BANK4   BANK5   BANK6   BANK7   BANK8   BANK9  BANK10  BANK1
      +1  BANK12  BANK13  BANK14  BANK15
  2550 ;;      Params:         0       0       0       0       0       0       0       0       0       0       0       0       
      +0       0       0       0       0
  2551 ;;      Locals:         0       0       0       0       0       0       0       0       0       0       0       0       
      +0       0       0       0       0
  2552 ;;      Temps:          0       0       0       0       0       0       0       0       0       0       0       0       
      +0       0       0       0       0
  2553 ;;      Totals:         0       0       0       0       0       0       0       0       0       0       0       0       
      +0       0       0       0       0
  2554 ;;Total ram usage:        0 bytes
  2555 ;; Hardware stack levels used:    1
  2556 ;; This function calls:
  2557 ;;		Nothing
  2558 ;; This function is called by:
  2559 ;;		_Wait_One_Second
  2560 ;;		_Wait_One_Second_With_Beep
  2561 ;; This function uses a non-reentrant model
  2562 ;;
  2563                           
  2564                           	psect	text21
  2565  00F8AE                     __ptext21:
  2566                           	opt stack 0
  2567  00F8AE                     _Wait_Half_Second:
  2568                           	opt stack 27
  2569                           
  2570                           ;Lab6.c: 164: T0CON = 0x02;
  2571                           
  2572                           ;incstack = 0
  2573  00F8AE  0E02               	movlw	2
  2574  00F8B0  6ED5               	movwf	4053,c	;volatile
  2575                           
  2576                           ;Lab6.c: 165: TMR0L = 0xDB;
  2577  00F8B2  0EDB               	movlw	219
  2578  00F8B4  6ED6               	movwf	4054,c	;volatile
  2579                           
  2580                           ;Lab6.c: 166: TMR0H = 0x0B;
  2581  00F8B6  0E0B               	movlw	11
  2582  00F8B8  6ED7               	movwf	4055,c	;volatile
  2583                           
  2584                           ;Lab6.c: 167: INTCONbits.TMR0IF = 0;
  2585  00F8BA  94F2               	bcf	intcon,2,c	;volatile
  2586                           
  2587                           ;Lab6.c: 168: T0CONbits.TMR0ON = 1;
  2588  00F8BC  8ED5               	bsf	4053,7,c	;volatile
  2589                           
  2590                           ;Lab6.c: 169: while (INTCONbits.TMR0IF == 0);
  2591  00F8BE  D000               	goto	l114
  2592  00F8C0                     l114:
  2593  00F8C0  A4F2               	btfss	intcon,2,c	;volatile
  2594  00F8C2  D7FE               	goto	l114
  2595                           
  2596                           ;Lab6.c: 170: T0CONbits.TMR0ON = 0;
  2597  00F8C4  9ED5               	bcf	4053,7,c	;volatile
  2598  00F8C6  0012               	return		;funcret
  2599  00F8C8                     __end_of_Wait_Half_Second:
  2600                           	opt stack 0
  2601                           tblptru	equ	0xFF8
  2602                           tblptrh	equ	0xFF7
  2603                           tblptrl	equ	0xFF6
  2604                           tablat	equ	0xFF5
  2605                           prodl	equ	0xFF3
  2606                           intcon	equ	0xFF2
  2607                           postinc0	equ	0xFEE
  2608                           postdec1	equ	0xFE5
  2609                           fsr1l	equ	0xFE1
  2610                           status	equ	0xFD8
  2611                           
  2612 ;; *************** function _Deactivate_Buzzer *****************
  2613 ;; Defined at:
  2614 ;;		line 218 in file "Lab6.c"
  2615 ;; Parameters:    Size  Location     Type
  2616 ;;		None
  2617 ;; Auto vars:     Size  Location     Type
  2618 ;;		None
  2619 ;; Return value:  Size  Location     Type
  2620 ;;		None               void
  2621 ;; Registers used:
  2622 ;;		wreg, status,2
  2623 ;; Tracked objects:
  2624 ;;		On entry : 0/0
  2625 ;;		On exit  : 0/0
  2626 ;;		Unchanged: 0/0
  2627 ;; Data sizes:     COMRAM   BANK0   BANK1   BANK2   BANK3   BANK4   BANK5   BANK6   BANK7   BANK8   BANK9  BANK10  BANK1
      +1  BANK12  BANK13  BANK14  BANK15
  2628 ;;      Params:         0       0       0       0       0       0       0       0       0       0       0       0       
      +0       0       0       0       0
  2629 ;;      Locals:         0       0       0       0       0       0       0       0       0       0       0       0       
      +0       0       0       0       0
  2630 ;;      Temps:          0       0       0       0       0       0       0       0       0       0       0       0       
      +0       0       0       0       0
  2631 ;;      Totals:         0       0       0       0       0       0       0       0       0       0       0       0       
      +0       0       0       0       0
  2632 ;;Total ram usage:        0 bytes
  2633 ;; Hardware stack levels used:    1
  2634 ;; This function calls:
  2635 ;;		Nothing
  2636 ;; This function is called by:
  2637 ;;		_Wait_One_Second_With_Beep
  2638 ;; This function uses a non-reentrant model
  2639 ;;
  2640                           
  2641                           	psect	text22
  2642  00F826                     __ptext22:
  2643                           	opt stack 0
  2644  00F826                     _Deactivate_Buzzer:
  2645                           	opt stack 27
  2646                           
  2647                           ;Lab6.c: 219: CCP2CON = 0x0;
  2648                           
  2649                           ;incstack = 0
  2650  00F826  0E00               	movlw	0
  2651  00F828  6EBA               	movwf	4026,c	;volatile
  2652                           
  2653                           ;Lab6.c: 220: PORTBbits.RB3 = 0;
  2654  00F82A  9681               	bcf	3969,3,c	;volatile
  2655  00F82C  0012               	return		;funcret
  2656  00F82E                     __end_of_Deactivate_Buzzer:
  2657                           	opt stack 0
  2658                           tblptru	equ	0xFF8
  2659                           tblptrh	equ	0xFF7
  2660                           tblptrl	equ	0xFF6
  2661                           tablat	equ	0xFF5
  2662                           prodl	equ	0xFF3
  2663                           intcon	equ	0xFF2
  2664                           postinc0	equ	0xFEE
  2665                           postdec1	equ	0xFE5
  2666                           fsr1l	equ	0xFE1
  2667                           status	equ	0xFD8
  2668                           
  2669 ;; *************** function _Activate_Buzzer *****************
  2670 ;; Defined at:
  2671 ;;		line 212 in file "Lab6.c"
  2672 ;; Parameters:    Size  Location     Type
  2673 ;;		None
  2674 ;; Auto vars:     Size  Location     Type
  2675 ;;		None
  2676 ;; Return value:  Size  Location     Type
  2677 ;;		None               void
  2678 ;; Registers used:
  2679 ;;		wreg, status,2
  2680 ;; Tracked objects:
  2681 ;;		On entry : 0/0
  2682 ;;		On exit  : 0/0
  2683 ;;		Unchanged: 0/0
  2684 ;; Data sizes:     COMRAM   BANK0   BANK1   BANK2   BANK3   BANK4   BANK5   BANK6   BANK7   BANK8   BANK9  BANK10  BANK1
      +1  BANK12  BANK13  BANK14  BANK15
  2685 ;;      Params:         0       0       0       0       0       0       0       0       0       0       0       0       
      +0       0       0       0       0
  2686 ;;      Locals:         0       0       0       0       0       0       0       0       0       0       0       0       
      +0       0       0       0       0
  2687 ;;      Temps:          0       0       0       0       0       0       0       0       0       0       0       0       
      +0       0       0       0       0
  2688 ;;      Totals:         0       0       0       0       0       0       0       0       0       0       0       0       
      +0       0       0       0       0
  2689 ;;Total ram usage:        0 bytes
  2690 ;; Hardware stack levels used:    1
  2691 ;; This function calls:
  2692 ;;		Nothing
  2693 ;; This function is called by:
  2694 ;;		_Wait_One_Second_With_Beep
  2695 ;; This function uses a non-reentrant model
  2696 ;;
  2697                           
  2698                           	psect	text23
  2699  00F85C                     __ptext23:
  2700                           	opt stack 0
  2701  00F85C                     _Activate_Buzzer:
  2702                           	opt stack 27
  2703                           
  2704                           ;Lab6.c: 213: PR2 = 0b11111001 ;
  2705                           
  2706                           ;incstack = 0
  2707  00F85C  0EF9               	movlw	249
  2708  00F85E  6ECB               	movwf	4043,c	;volatile
  2709                           
  2710                           ;Lab6.c: 214: T2CON = 0b00000101 ;
  2711  00F860  0E05               	movlw	5
  2712  00F862  6ECA               	movwf	4042,c	;volatile
  2713                           
  2714                           ;Lab6.c: 215: CCPR2L = 0b01001010 ;
  2715  00F864  0E4A               	movlw	74
  2716  00F866  6EBB               	movwf	4027,c	;volatile
  2717                           
  2718                           ;Lab6.c: 216: CCP2CON = 0b00111100 ;
  2719  00F868  0E3C               	movlw	60
  2720  00F86A  6EBA               	movwf	4026,c	;volatile
  2721  00F86C  0012               	return		;funcret
  2722  00F86E                     __end_of_Activate_Buzzer:
  2723                           	opt stack 0
  2724                           tblptru	equ	0xFF8
  2725                           tblptrh	equ	0xFF7
  2726                           tblptrl	equ	0xFF6
  2727                           tablat	equ	0xFF5
  2728                           prodl	equ	0xFF3
  2729                           intcon	equ	0xFF2
  2730                           postinc0	equ	0xFEE
  2731                           postdec1	equ	0xFE5
  2732                           fsr1l	equ	0xFE1
  2733                           status	equ	0xFD8
  2734                           
  2735 ;; *************** function _Display_Upper_Digit *****************
  2736 ;; Defined at:
  2737 ;;		line 147 in file "Lab6.c"
  2738 ;; Parameters:    Size  Location     Type
  2739 ;;  digit           1    wreg     unsigned char 
  2740 ;; Auto vars:     Size  Location     Type
  2741 ;;  digit           1    0[COMRAM] unsigned char 
  2742 ;; Return value:  Size  Location     Type
  2743 ;;		None               void
  2744 ;; Registers used:
  2745 ;;		wreg, fsr2l, fsr2h, status,2, status,0, prodl, prodh
  2746 ;; Tracked objects:
  2747 ;;		On entry : 0/0
  2748 ;;		On exit  : 0/0
  2749 ;;		Unchanged: 0/0
  2750 ;; Data sizes:     COMRAM   BANK0   BANK1   BANK2   BANK3   BANK4   BANK5   BANK6   BANK7   BANK8   BANK9  BANK10  BANK1
      +1  BANK12  BANK13  BANK14  BANK15
  2751 ;;      Params:         0       0       0       0       0       0       0       0       0       0       0       0       
      +0       0       0       0       0
  2752 ;;      Locals:         1       0       0       0       0       0       0       0       0       0       0       0       
      +0       0       0       0       0
  2753 ;;      Temps:          0       0       0       0       0       0       0       0       0       0       0       0       
      +0       0       0       0       0
  2754 ;;      Totals:         1       0       0       0       0       0       0       0       0       0       0       0       
      +0       0       0       0       0
  2755 ;;Total ram usage:        1 bytes
  2756 ;; Hardware stack levels used:    1
  2757 ;; This function calls:
  2758 ;;		Nothing
  2759 ;; This function is called by:
  2760 ;;		_PED_Control
  2761 ;; This function uses a non-reentrant model
  2762 ;;
  2763                           
  2764                           	psect	text24
  2765  00F952                     __ptext24:
  2766                           	opt stack 0
  2767  00F952                     _Display_Upper_Digit:
  2768                           	opt stack 28
  2769                           
  2770                           ;incstack = 0
  2771                           ;Display_Upper_Digit@digit stored from wreg
  2772  00F952  6E01               	movwf	Display_Upper_Digit@digit,c
  2773                           
  2774                           ;Lab6.c: 148: PORTC = array[digit] & 0x3F;
  2775  00F954  5001               	movf	Display_Upper_Digit@digit,w,c
  2776  00F956  0D01               	mullw	1
  2777  00F958  0E26               	movlw	low _array
  2778  00F95A  24F3               	addwf	prodl,w,c
  2779  00F95C  6ED9               	movwf	fsr2l,c
  2780  00F95E  0E00               	movlw	high _array
  2781  00F960  20F4               	addwfc	prodh,w,c
  2782  00F962  6EDA               	movwf	fsr2h,c
  2783  00F964  50DF               	movf	indf2,w,c
  2784  00F966  0B3F               	andlw	63
  2785  00F968  6E82               	movwf	3970,c	;volatile
  2786                           
  2787                           ;Lab6.c: 149: if((array[digit] & 0x40) == 0x00)
  2788  00F96A  5001               	movf	Display_Upper_Digit@digit,w,c
  2789  00F96C  0D01               	mullw	1
  2790  00F96E  0E26               	movlw	low _array
  2791  00F970  24F3               	addwf	prodl,w,c
  2792  00F972  6ED9               	movwf	fsr2l,c
  2793  00F974  0E00               	movlw	high _array
  2794  00F976  20F4               	addwfc	prodh,w,c
  2795  00F978  6EDA               	movwf	fsr2h,c
  2796  00F97A  BCDF               	btfsc	indf2,6,c
  2797  00F97C  D002               	goto	l103
  2798                           
  2799                           ;Lab6.c: 150: PORTEbits.RE1 = 0;
  2800  00F97E  9284               	bcf	3972,1,c	;volatile
  2801  00F980  D002               	goto	l105
  2802  00F982                     l103:
  2803                           
  2804                           ;Lab6.c: 151: else
  2805                           ;Lab6.c: 152: PORTEbits.RE1 = 1;
  2806  00F982  8284               	bsf	3972,1,c	;volatile
  2807  00F984  D000               	goto	l105
  2808  00F986                     l105:
  2809  00F986  0012               	return		;funcret
  2810  00F988                     __end_of_Display_Upper_Digit:
  2811                           	opt stack 0
  2812                           tblptru	equ	0xFF8
  2813                           tblptrh	equ	0xFF7
  2814                           tblptrl	equ	0xFF6
  2815                           tablat	equ	0xFF5
  2816                           prodh	equ	0xFF4
  2817                           prodl	equ	0xFF3
  2818                           intcon	equ	0xFF2
  2819                           postinc0	equ	0xFEE
  2820                           postdec1	equ	0xFE5
  2821                           fsr1l	equ	0xFE1
  2822                           indf2	equ	0xFDF
  2823                           fsr2h	equ	0xFDA
  2824                           fsr2l	equ	0xFD9
  2825                           status	equ	0xFD8
  2826                           
  2827 ;; *************** function _Display_Lower_Digit *****************
  2828 ;; Defined at:
  2829 ;;		line 154 in file "Lab6.c"
  2830 ;; Parameters:    Size  Location     Type
  2831 ;;  digit           1    wreg     unsigned char 
  2832 ;; Auto vars:     Size  Location     Type
  2833 ;;  digit           1    1[COMRAM] unsigned char 
  2834 ;; Return value:  Size  Location     Type
  2835 ;;		None               void
  2836 ;; Registers used:
  2837 ;;		wreg, fsr2l, fsr2h, status,2, status,0, prodl, prodh
  2838 ;; Tracked objects:
  2839 ;;		On entry : 0/0
  2840 ;;		On exit  : 0/0
  2841 ;;		Unchanged: 0/0
  2842 ;; Data sizes:     COMRAM   BANK0   BANK1   BANK2   BANK3   BANK4   BANK5   BANK6   BANK7   BANK8   BANK9  BANK10  BANK1
      +1  BANK12  BANK13  BANK14  BANK15
  2843 ;;      Params:         0       0       0       0       0       0       0       0       0       0       0       0       
      +0       0       0       0       0
  2844 ;;      Locals:         1       0       0       0       0       0       0       0       0       0       0       0       
      +0       0       0       0       0
  2845 ;;      Temps:          1       0       0       0       0       0       0       0       0       0       0       0       
      +0       0       0       0       0
  2846 ;;      Totals:         2       0       0       0       0       0       0       0       0       0       0       0       
      +0       0       0       0       0
  2847 ;;Total ram usage:        2 bytes
  2848 ;; Hardware stack levels used:    1
  2849 ;; This function calls:
  2850 ;;		Nothing
  2851 ;; This function is called by:
  2852 ;;		_PED_Control
  2853 ;; This function uses a non-reentrant model
  2854 ;;
  2855                           
  2856                           	psect	text25
  2857  00F8E2                     __ptext25:
  2858                           	opt stack 0
  2859  00F8E2                     _Display_Lower_Digit:
  2860                           	opt stack 28
  2861                           
  2862                           ;incstack = 0
  2863                           ;Display_Lower_Digit@digit stored from wreg
  2864  00F8E2  6E02               	movwf	Display_Lower_Digit@digit,c
  2865                           
  2866                           ;Lab6.c: 155: PORTD = (PORTD & 0x80) | array[digit];
  2867  00F8E4  5002               	movf	Display_Lower_Digit@digit,w,c
  2868  00F8E6  0D01               	mullw	1
  2869  00F8E8  0E26               	movlw	low _array
  2870  00F8EA  24F3               	addwf	prodl,w,c
  2871  00F8EC  6ED9               	movwf	fsr2l,c
  2872  00F8EE  0E00               	movlw	high _array
  2873  00F8F0  20F4               	addwfc	prodh,w,c
  2874  00F8F2  6EDA               	movwf	fsr2h,c
  2875  00F8F4  50DF               	movf	indf2,w,c
  2876  00F8F6  6E01               	movwf	??_Display_Lower_Digit& (0+255),c
  2877  00F8F8  5083               	movf	3971,w,c	;volatile
  2878  00F8FA  0B80               	andlw	128
  2879  00F8FC  1001               	iorwf	??_Display_Lower_Digit,w,c
  2880  00F8FE  6E83               	movwf	3971,c	;volatile
  2881  00F900  0012               	return		;funcret
  2882  00F902                     __end_of_Display_Lower_Digit:
  2883                           	opt stack 0
  2884  0000                     tblptru	equ	0xFF8
  2885                           tblptrh	equ	0xFF7
  2886                           tblptrl	equ	0xFF6
  2887                           tablat	equ	0xFF5
  2888                           prodh	equ	0xFF4
  2889                           prodl	equ	0xFF3
  2890                           intcon	equ	0xFF2
  2891                           postinc0	equ	0xFEE
  2892                           postdec1	equ	0xFE5
  2893                           fsr1l	equ	0xFE1
  2894                           indf2	equ	0xFDF
  2895                           fsr2h	equ	0xFDA
  2896                           fsr2l	equ	0xFD9
  2897                           status	equ	0xFD8
  2898                           tblptru	equ	0xFF8
  2899                           tblptrh	equ	0xFF7
  2900                           tblptrl	equ	0xFF6
  2901                           tablat	equ	0xFF5
  2902                           prodh	equ	0xFF4
  2903                           prodl	equ	0xFF3
  2904                           intcon	equ	0xFF2
  2905                           postinc0	equ	0xFEE
  2906                           postdec1	equ	0xFE5
  2907                           fsr1l	equ	0xFE1
  2908                           indf2	equ	0xFDF
  2909                           fsr2h	equ	0xFDA
  2910                           fsr2l	equ	0xFD9
  2911                           status	equ	0xFD8
  2912                           
  2913                           	psect	rparam
  2914  0000                     tblptru	equ	0xFF8
  2915                           tblptrh	equ	0xFF7
  2916                           tblptrl	equ	0xFF6
  2917                           tablat	equ	0xFF5
  2918                           prodh	equ	0xFF4
  2919                           prodl	equ	0xFF3
  2920                           intcon	equ	0xFF2
  2921                           postinc0	equ	0xFEE
  2922                           postdec1	equ	0xFE5
  2923                           fsr1l	equ	0xFE1
  2924                           indf2	equ	0xFDF
  2925                           fsr2h	equ	0xFDA
  2926                           fsr2l	equ	0xFD9
  2927                           status	equ	0xFD8


Data Sizes:
    Strings     0
    Constant    0
    Data        10
    BSS         0
    Persistent  0
    Stack       0

Auto Spaces:
    Space          Size  Autos    Used
    COMRAM          127     37      47
    BANK0           128      0       0
    BANK1           256      0       0
    BANK2           256      0       0
    BANK3           256      0       0
    BANK4           256      0       0
    BANK5           256      0       0
    BANK6           256      0       0
    BANK7           256      0       0
    BANK8           256      0       0
    BANK9           256      0       0
    BANK10          256      0       0
    BANK11          256      0       0
    BANK12          256      0       0
    BANK13          256      0       0
    BANK14          256      0       0
    BANK15          128      0       0

Pointer List with Targets:

    None.

Critical Paths under _main in COMRAM

    _main->___ftmul
    _init_UART->_OpenUSART
    ___ftmul->___awtoft
    ___awtoft->___ftpack
    _Night_Mode->_Wait_N_Seconds
    _Day_Mode->_PED_Control
    _PED_Control->_Display_Lower_Digit

Critical Paths under _main in BANK0

    None.

Critical Paths under _main in BANK1

    None.

Critical Paths under _main in BANK2

    None.

Critical Paths under _main in BANK3

    None.

Critical Paths under _main in BANK4

    None.

Critical Paths under _main in BANK5

    None.

Critical Paths under _main in BANK6

    None.

Critical Paths under _main in BANK7

    None.

Critical Paths under _main in BANK8

    None.

Critical Paths under _main in BANK9

    None.

Critical Paths under _main in BANK10

    None.

Critical Paths under _main in BANK11

    None.

Critical Paths under _main in BANK12

    None.

Critical Paths under _main in BANK13

    None.

Critical Paths under _main in BANK14

    None.

Critical Paths under _main in BANK15

    None.

Call Graph Tables:

 ---------------------------------------------------------------------------------
 (Depth) Function   	        Calls       Base Space   Used Autos Params    Refs
 ---------------------------------------------------------------------------------
 (0) _main                                                10    10      0    4337
                                             27 COMRAM    10    10      0
                           _Day_Mode
                           _Init_ADC
                          _Init_Tris
                         _Night_Mode
                 _Select_ADC_Channel
                           ___awtoft
                            ___ftmul
                            ___fttol
                       _get_full_ADC
                          _init_UART
 ---------------------------------------------------------------------------------
 (1) _init_UART                                            0     0      0     263
                          _OpenUSART
 ---------------------------------------------------------------------------------
 (2) _OpenUSART                                            3     1      2     263
                                              0 COMRAM     3     1      2
 ---------------------------------------------------------------------------------
 (1) _get_full_ADC                                         6     4      2      23
                                              0 COMRAM     6     4      2
 ---------------------------------------------------------------------------------
 (1) ___fttol                                             15    11      4     295
                                              0 COMRAM    15    11      4
 ---------------------------------------------------------------------------------
 (1) ___ftmul                                             15     9      6    1771
                                             12 COMRAM    15     9      6
                           ___awtoft (ARG)
                           ___ftpack
 ---------------------------------------------------------------------------------
 (1) ___awtoft                                             4     1      3    1433
                                              8 COMRAM     4     1      3
                           ___ftpack
 ---------------------------------------------------------------------------------
 (2) ___ftpack                                             8     3      5    1299
                                              0 COMRAM     8     3      5
 ---------------------------------------------------------------------------------
 (1) _Select_ADC_Channel                                   1     1      0      15
                                              0 COMRAM     1     1      0
 ---------------------------------------------------------------------------------
 (1) _Night_Mode                                           0     0      0      90
                             _Set_EW
                           _Set_EWLT
                             _Set_NS
                           _Set_NSLT
                     _Wait_N_Seconds
 ---------------------------------------------------------------------------------
 (1) _Init_Tris                                            0     0      0       0
 ---------------------------------------------------------------------------------
 (1) _Init_ADC                                             0     0      0       0
 ---------------------------------------------------------------------------------
 (1) _Day_Mode                                             0     0      0     355
                        _PED_Control
                             _Set_EW
                           _Set_EWLT
                             _Set_NS
                           _Set_NSLT
                     _Wait_N_Seconds
 ---------------------------------------------------------------------------------
 (2) _Wait_N_Seconds                                       2     2      0      30
                                              0 COMRAM     2     2      0
                    _Wait_One_Second
 ---------------------------------------------------------------------------------
 (3) _Wait_One_Second                                      0     0      0       0
                   _Wait_Half_Second
 ---------------------------------------------------------------------------------
 (2) _Set_NSLT                                             1     1      0      15
                                              0 COMRAM     1     1      0
 ---------------------------------------------------------------------------------
 (2) _Set_NS                                               1     1      0      15
                                              0 COMRAM     1     1      0
 ---------------------------------------------------------------------------------
 (2) _Set_EWLT                                             1     1      0      15
                                              0 COMRAM     1     1      0
 ---------------------------------------------------------------------------------
 (2) _Set_EW                                               1     1      0      15
                                              0 COMRAM     1     1      0
 ---------------------------------------------------------------------------------
 (2) _PED_Control                                          3     2      1     265
                                              2 COMRAM     3     2      1
                _Display_Lower_Digit
                _Display_Upper_Digit
          _Wait_One_Second_With_Beep
 ---------------------------------------------------------------------------------
 (3) _Wait_One_Second_With_Beep                            0     0      0       0
                    _Activate_Buzzer
                  _Deactivate_Buzzer
                   _Wait_Half_Second
 ---------------------------------------------------------------------------------
 (4) _Wait_Half_Second                                     0     0      0       0
 ---------------------------------------------------------------------------------
 (4) _Deactivate_Buzzer                                    0     0      0       0
 ---------------------------------------------------------------------------------
 (4) _Activate_Buzzer                                      0     0      0       0
 ---------------------------------------------------------------------------------
 (3) _Display_Upper_Digit                                  1     1      0      30
                                              0 COMRAM     1     1      0
 ---------------------------------------------------------------------------------
 (3) _Display_Lower_Digit                                  2     2      0      15
                                              0 COMRAM     2     2      0
 ---------------------------------------------------------------------------------
 Estimated maximum stack depth 4
 ---------------------------------------------------------------------------------

 Call Graph Graphs:

 _main (ROOT)
   _Day_Mode
     _PED_Control
       _Display_Lower_Digit
       _Display_Upper_Digit
       _Wait_One_Second_With_Beep
         _Activate_Buzzer
         _Deactivate_Buzzer
         _Wait_Half_Second
     _Set_EW
     _Set_EWLT
     _Set_NS
     _Set_NSLT
     _Wait_N_Seconds
       _Wait_One_Second
         _Wait_Half_Second
   _Init_ADC
   _Init_Tris
   _Night_Mode
     _Set_EW
     _Set_EWLT
     _Set_NS
     _Set_NSLT
     _Wait_N_Seconds
       _Wait_One_Second
         _Wait_Half_Second
   _Select_ADC_Channel
   ___awtoft
     ___ftpack
   ___ftmul
     ___awtoft (ARG)
       ___ftpack
     ___ftpack (ARG)
   ___fttol
   _get_full_ADC
   _init_UART
     _OpenUSART

 Address spaces:
Name               Size   Autos  Total    Cost      Usage
BIGRAM             F7F      0       0      37        0.0%
EEDATA             400      0       0       0        0.0%
BITBANK14          100      0       0      32        0.0%
BANK14             100      0       0      33        0.0%
BITBANK13          100      0       0      30        0.0%
BANK13             100      0       0      31        0.0%
BITBANK12          100      0       0      28        0.0%
BANK12             100      0       0      29        0.0%
BITBANK11          100      0       0      26        0.0%
BANK11             100      0       0      27        0.0%
BITBANK10          100      0       0      24        0.0%
BANK10             100      0       0      25        0.0%
BITBANK9           100      0       0      22        0.0%
BANK9              100      0       0      23        0.0%
BITBANK8           100      0       0      20        0.0%
BANK8              100      0       0      21        0.0%
BITBANK7           100      0       0      18        0.0%
BANK7              100      0       0      19        0.0%
BITBANK6           100      0       0      16        0.0%
BANK6              100      0       0      17        0.0%
BITBANK5           100      0       0      14        0.0%
BANK5              100      0       0      15        0.0%
BITBANK4           100      0       0      12        0.0%
BANK4              100      0       0      13        0.0%
BITBANK3           100      0       0      10        0.0%
BANK3              100      0       0      11        0.0%
BITBANK2           100      0       0       8        0.0%
BANK2              100      0       0       9        0.0%
BITBANK1           100      0       0       6        0.0%
BANK1              100      0       0       7        0.0%
BITBANK15           80      0       0      35        0.0%
BANK15              80      0       0      36        0.0%
BITBANK0            80      0       0       4        0.0%
BANK0               80      0       0       5        0.0%
BITCOMRAM           7F      0       0       0        0.0%
COMRAM              7F     25      2F       1       37.0%
BITSFR               0      0       0      40        0.0%
SFR                  0      0       0      40        0.0%
STACK                0      0       0       2        0.0%
NULL                 0      0       0       0        0.0%
ABS                  0      0      2F      34        0.0%
DATA                 0      0      2F       3        0.0%
CODE                 0      0       0       0        0.0%


Microchip Technology PIC18 Macro Assembler V1.34 build -361300703 
Symbol Table                                                                                   Thu Mar 17 17:37:20 2022

         _Wait_One_Second_With_Beep F882                                  l78 FBF4  
                                l97 F906                                 l100 F926  
                               l103 F982                                 l105 F986  
                               l114 F8C0                                 l130 FA02  
                               l131 FA06                                 l132 FA28  
                               l140 FA3C                                 l220 FB3C  
                               l141 FA5E                                 l221 FB46  
                               l150 F9BC                                 l222 FB48  
                               l127 F9F8                                 l215 FB20  
                               l136 FA2E                                 l224 FB62  
                               l145 F98C                                 l129 F9FC  
                               l154 F9C2                                 l138 FA32  
                               l147 F990                                 l139 FA38  
                               l219 FB3A                                 l148 F996  
                               l156 F9C6                                 l149 F99A  
                               l157 F9CC                                 l158 F9D0  
                               l190 FD54                                 l159 F9F2  
                               l184 FCA0                                 l188 FD04  
                               l445 FA9A                                 l622 FFFE  
                               l535 FE20                                 l546 FDF8  
                               l643 FF06                                 l910 F9A0  
                               l904 FA42                                 l916 F9D6  
                               l892 F8D8                                 l888 F8D0  
                               l898 FA0C                   ?_Wait_Half_Second 0001  
                               _PR2 000FCB                                 u721 FF18  
                               u810 FE5E                                 u741 FF36  
                               u815 FE56                                 u791 FE32  
                 _Deactivate_Buzzer F826                                 prod 000FF3  
                ??_Wait_Half_Second 0001                  ?_Deactivate_Buzzer 0001  
                      __CFG_LVP$OFF 000000                PED_Control@Direction 0004  
                      __CFG_WDT$OFF 000000                                l1040 FC54  
                              l1200 FB32                                l1042 FC74  
                              l1046 FC98                                l1240 FADA  
                              l1232 FABA                                l1320 FD1A  
                              l1304 FCCA                                l1400 FE40  
                              l1234 FAC2                                l1228 FAAE  
                              l1260 FD88                                l1340 FF26  
                              l1180 FB06                                l1246 FAE2  
                              l1238 FACA                                l1270 FDEC  
                              l1262 FDA8                                l1254 FD6C  
                              l1342 FF40                                l1430 FED2  
                              l1422 FEAA                                l1360 FF82  
                              l1424 FEB0                                l1432 FEDC  
                              l1192 FB24                                l1184 FB10  
                              l1282 FE12                                l1266 FDC0  
                              l1258 FD7C                                l1370 FFB0  
                              l1346 FF4E                                l1418 FE9A  
                              l1442 FB72                                l1276 FE00  
                              l1268 FDE0                                l1364 FF94  
                              l1436 FEF4                                l1428 FEC4  
                              l1188 FB18                                l1390 FA76  
                              l1374 FFC2                                l1454 FBEC  
                              l1368 FFAA                                l1378 FFD8  
               ??_Deactivate_Buzzer 0001                                _main FB64  
                      ___ftpack@arg 0001                        main@Pvoltage 001F  
                      ___ftpack@exp 0004                      ??_get_full_ADC 0003  
                              fsr1l 000FE1                                indf2 000FDF  
                              fsr2l 000FD9                                prodl 000FF3  
                              start 0000                        ___ftmul@cntr 001A  
                      ___param_bank 000010                        ___ftmul@sign 001B  
                      ___fttol@exp1 000F                        ___fttol@lval 000B  
         __end_of_Deactivate_Buzzer F82E                               ?_main 0001  
                   __end_of___ftmul 0000                               _T0CON 000FD5  
                   __end_of___fttol FF08                               _T2CON 000FCA  
                             _RCSTA 000FAB                               _TMR0H 000FD7  
                             _TMR0L 000FD6                               _SPBRG 000FAF  
                             _PORTC 000F82                               _PORTD 000F83  
                             _TRISA 000F92                               _TRISB 000F93  
                             _TRISC 000F94                               _TRISD 000F95  
                             _TRISE 000F96                               _TXSTA 000FAC  
                      ?_PED_Control 0003                       ___awtoft@sign 000C  
                             _array 0026                   ??_Wait_One_Second 0001  
                     ___ftpack@sign 0005                        main@num_step 0022  
                    __CFG_BOREN$OFF 000000                               tablat 000FF5  
                             status 000FD8                    __end_of_Day_Mode FD5C  
                    _Wait_N_Seconds F8C8                     __initialization F928  
                      __end_of_main FC00            Display_Lower_Digit@digit 0002  
                  __end_of_Init_ADC F838                          _Night_Mode FC00  
                  __end_of_Set_EWLT F9F4                    __end_of_Set_NSLT FA60  
                            ??_main 001C                       ___fttol@sign1 000A  
                     __activetblptr 000002               Wait_N_Seconds@seconds 0001  
       __end_of_Display_Lower_Digit F902                              _ADCON0 000FC2  
                            _ADCON1 000FC1                              _ADCON2 000FC0  
                            _ADRESH 000FC4                              _ADRESL 000FC3  
                            _CCPR2L 000FBB                    __end_of___awtoft FA9C  
                  __end_of___ftpack FE22                              _OSCCON 000FD3  
                            _SPBRGH 000FB0              __end_of_Wait_N_Seconds F8E2  
                __size_of_Init_Tris 0016                              _Set_EW F988  
                            _Set_NS F9F4                  __size_of_OpenUSART 0070  
          __size_of_Activate_Buzzer 0012                           ??___ftmul 0013  
                         ??___fttol 0005          __size_of_Deactivate_Buzzer 0008  
             ___ftmul@f3_as_product 0017                __end_of_get_full_ADC F928  
                      __pdataCOMRAM 0026  __size_of_Wait_One_Second_With_Beep 0016  
                       Set_EW@color 0001                              tblptrh 000FF7  
                            tblptrl 000FF6                              tblptru 000FF8  
                       Set_NS@color 0001                          __accesstop 0080  
           __end_of__initialization F948                     ?_Wait_N_Seconds 0001  
                     ___rparam_used 000001                          ___awtoft@c 0009  
                        ___ftmul@f1 000D                          ___ftmul@f2 0010  
                        ___fttol@f1 0001                      __pcstackCOMRAM 0001  
                       ?_Night_Mode 0001                   __end_of_Init_Tris F8AE  
                         ?_Day_Mode 0001         __end_of_Display_Upper_Digit F988  
                 __end_of_OpenUSART FB64                    main@finalVoltage 0024  
              __size_of_PED_Control 0058                           ?_Init_ADC 0001  
                __size_of_init_UART 0014          __end_of_Select_ADC_Channel F84E  
         __size_of_Wait_Half_Second 001A                           ?_Set_EWLT 0001  
                         ?_Set_NSLT 0001                             ?_Set_EW 0001  
                           ?_Set_NS 0001                  __CFG_CCP2MX$PORTBE 000000  
                           _CCP2CON 000FBA                           ?___awtoft 0009  
                         ?___ftpack 0001                     _Wait_One_Second F84E  
         Select_ADC_Channel@channel 0001                   ??_Activate_Buzzer 0001  
                        ??_Day_Mode 0006                          ??_Init_ADC 0001  
               __size_of_Night_Mode 00A2                          ??_Set_EWLT 0001  
                        ??_Set_NSLT 0001                             __Hparam 0000  
                           __Lparam 0000                     __size_of_Set_EW 0036  
                   __size_of_Set_NS 0036                             ___ftmul FF08  
                           ___fttol FE22               __size_of_get_full_ADC 0026  
                           __pcinit F928                          ??___awtoft 000C  
                        ??___ftpack 0006                             __ramtop 1000  
                           __ptext0 FB64                             __ptext1 F86E  
                           __ptext2 FAF4                             __ptext3 F902  
                           __ptext4 FE22                             __ptext5 FF08  
                           __ptext6 FA60                             __ptext7 FD5C  
                           __ptext8 F842                             __ptext9 FC00  
                 __end_of_init_UART F882                           _T0CONbits 000FD5  
              end_of_initialization F948                       __Lmediumconst 0000  
                      _get_full_ADC F902                        PED_Control@i 0005  
           __end_of_Wait_One_Second F85C                           _RCSTAbits 000FAB  
                           postdec1 000FE5                             postinc0 000FEE  
                         _PORTAbits 000F80                           _PORTBbits 000F81  
                         _PORTDbits 000F83                           _PORTEbits 000F84  
                         _TRISCbits 000F94                    ??_Wait_N_Seconds 0001  
      __size_of_Display_Lower_Digit 0020                    _Wait_Half_Second F8AE  
                         _TXSTAbits 000FAC                  PED_Control@Num_Sec 0003  
                get_full_ADC@result 0005                         ___ftmul@exp 0016  
          Display_Upper_Digit@digit 0001                      __end_of_Set_EW F9BE  
                    __end_of_Set_NS FA2A                       __pidataCOMRAM F838  
                      ??_Night_Mode 0003                 start_initialization F928  
                         _Init_Tris F898                   __size_of_Day_Mode 00BA  
                         _OpenUSART FAF4                    __CFG_OSC$INTIO67 000000  
                 __size_of_Init_ADC 000A                  __end_of_Night_Mode FCA2  
                   Wait_N_Seconds@I 0002                            ??_Set_EW 0001  
                          ??_Set_NS 0001                   __size_of_Set_EWLT 0036  
                   _Activate_Buzzer F85C                   __size_of_Set_NSLT 0036  
                  ?_Wait_One_Second 0001                  _Select_ADC_Channel F842  
                 __size_of___awtoft 003C                   __size_of___ftpack 00C6  
               ?_Select_ADC_Channel 0001                       ??_PED_Control 0004  
                        ?_Init_Tris 0001          ?_Wait_One_Second_With_Beep 0001  
      __size_of_Display_Upper_Digit 0036                          ?_OpenUSART 0001  
              ??_Select_ADC_Channel 0001                            ?___ftmul 000D  
                          ?___fttol 0001                           _init_UART F86E  
 __end_of_Wait_One_Second_With_Beep F898                 __end_of_PED_Control FAF4  
           __end_of_Activate_Buzzer F86E                            _PIE1bits 000F9D  
                          _PIR1bits 000F9E                 _Display_Lower_Digit F8E2  
                        _ADCON0bits 000FC2            __end_of_Wait_Half_Second F8C8  
                          _Day_Mode FCA2                          ?_init_UART 0001  
                       ??_Init_Tris 0001                           copy_data0 F93C  
                          _Init_ADC F82E                ?_Display_Lower_Digit 0001  
                       ??_OpenUSART 0003                     OpenUSART@config 0003  
                          _Set_EWLT F9BE                            _Set_NSLT FA2A  
                          __Hrparam 0000                            __Lrparam 0000  
                  __size_of___ftmul 00F8                    __size_of___fttol 00E6  
                          ___awtoft FA60                            ___ftpack FD5C  
                       _PED_Control FA9C                            __ptext10 F898  
                          __ptext11 F82E                            __ptext20 F882  
                          __ptext12 FCA2                            __ptext21 F8AE  
                          __ptext13 F8C8                            __ptext22 F826  
                          __ptext14 F84E                            __ptext23 F85C  
                          __ptext15 FA2A                            __ptext24 F952  
                          __ptext16 F9F4                            __ptext25 F8E2  
                          __ptext17 F9BE                            __ptext18 F988  
                          __ptext19 FA9C               ??_Display_Lower_Digit 0001  
                  ?_Activate_Buzzer 0001                       __size_of_main 009C  
               _Display_Upper_Digit F952                          _INTCONbits 000FF2  
                    OpenUSART@spbrg 0001                         ??_init_UART 0004  
                     Set_EWLT@color 0001         ??_Wait_One_Second_With_Beep 0001  
              ?_Display_Upper_Digit 0001             __size_of_Wait_N_Seconds 001A  
          __size_of_Wait_One_Second 000E                       Set_NSLT@color 0001  
                   main@pvoltage_mv 001C               ??_Display_Upper_Digit 0001  
                     ?_get_full_ADC 0001         __size_of_Select_ADC_Channel 000C  
